
7z2405-x64.exe:     file format pei-i386


Disassembly of section .text:

00401000 <.text>:
  401000:	83 ec 20             	sub    $0x20,%esp
  401003:	53                   	push   %ebx
  401004:	55                   	push   %ebp
  401005:	56                   	push   %esi
  401006:	57                   	push   %edi
  401007:	e8 f1 49 00 00       	call   0x4059fd
  40100c:	33 ed                	xor    %ebp,%ebp
  40100e:	55                   	push   %ebp
  40100f:	ff 15 44 81 40 00    	call   *0x408144
  401015:	e8 5f 61 00 00       	call   0x407179
  40101a:	ff 15 7c 80 40 00    	call   *0x40807c
  401020:	8b c8                	mov    %eax,%ecx
  401022:	e8 5b 07 00 00       	call   0x401782
  401027:	8b f0                	mov    %eax,%esi
  401029:	bb 4c a4 40 00       	mov    $0x40a44c,%ebx
  40102e:	66 8b 06             	mov    (%esi),%ax
  401031:	66 3b c5             	cmp    %bp,%ax
  401034:	74 7e                	je     0x4010b4
  401036:	8b 3d 80 80 40 00    	mov    0x408080,%edi
  40103c:	66 3d 20 00          	cmp    $0x20,%ax
  401040:	75 04                	jne    0x401046
  401042:	46                   	inc    %esi
  401043:	46                   	inc    %esi
  401044:	eb 66                	jmp    0x4010ac
  401046:	8b ce                	mov    %esi,%ecx
  401048:	e8 35 07 00 00       	call   0x401782
  40104d:	66 83 3d 20 a0 40 00 	cmpw   $0x2f,0x40a020
  401054:	2f 
  401055:	6a 01                	push   $0x1
  401057:	8b f0                	mov    %eax,%esi
  401059:	58                   	pop    %eax
  40105a:	75 37                	jne    0x401093
  40105c:	66 8b 0d 22 a0 40 00 	mov    0x40a022,%cx
  401063:	66 83 f9 53          	cmp    $0x53,%cx
  401067:	75 10                	jne    0x401079
  401069:	66 39 2d 24 a0 40 00 	cmp    %bp,0x40a024
  401070:	75 21                	jne    0x401093
  401072:	a3 b8 a8 40 00       	mov    %eax,0x40a8b8
  401077:	eb 18                	jmp    0x401091
  401079:	66 83 f9 44          	cmp    $0x44,%cx
  40107d:	75 14                	jne    0x401093
  40107f:	66 83 3d 24 a0 40 00 	cmpw   $0x3d,0x40a024
  401086:	3d 
  401087:	75 0a                	jne    0x401093
  401089:	68 26 a0 40 00       	push   $0x40a026
  40108e:	53                   	push   %ebx
  40108f:	ff d7                	call   *%edi
  401091:	33 c0                	xor    %eax,%eax
  401093:	3b c5                	cmp    %ebp,%eax
  401095:	74 15                	je     0x4010ac
  401097:	66 39 2d 34 a2 40 00 	cmp    %bp,0x40a234
  40109e:	75 0c                	jne    0x4010ac
  4010a0:	68 20 a0 40 00       	push   $0x40a020
  4010a5:	68 34 a2 40 00       	push   $0x40a234
  4010aa:	ff d7                	call   *%edi
  4010ac:	66 8b 06             	mov    (%esi),%ax
  4010af:	66 3b c5             	cmp    %bp,%ax
  4010b2:	75 88                	jne    0x40103c
  4010b4:	66 39 2d 34 a2 40 00 	cmp    %bp,0x40a234
  4010bb:	74 14                	je     0x4010d1
  4010bd:	39 2d b8 a8 40 00    	cmp    %ebp,0x40a8b8
  4010c3:	75 55                	jne    0x40111a
  4010c5:	ba 34 a2 40 00       	mov    $0x40a234,%edx
  4010ca:	b9 34 85 40 00       	mov    $0x408534,%ecx
  4010cf:	eb 44                	jmp    0x401115
  4010d1:	68 24 85 40 00       	push   $0x408524
  4010d6:	68 08 85 40 00       	push   $0x408508
  4010db:	89 6c 24 18          	mov    %ebp,0x18(%esp)
  4010df:	ff 15 84 80 40 00    	call   *0x408084
  4010e5:	50                   	push   %eax
  4010e6:	ff 15 88 80 40 00    	call   *0x408088
  4010ec:	8b f0                	mov    %eax,%esi
  4010ee:	3b f5                	cmp    %ebp,%esi
  4010f0:	74 0e                	je     0x401100
  4010f2:	8d 44 24 10          	lea    0x10(%esp),%eax
  4010f6:	50                   	push   %eax
  4010f7:	ff 15 8c 80 40 00    	call   *0x40808c
  4010fd:	50                   	push   %eax
  4010fe:	ff d6                	call   *%esi
  401100:	39 6c 24 10          	cmp    %ebp,0x10(%esp)
  401104:	75 1c                	jne    0x401122
  401106:	39 2d b8 a8 40 00    	cmp    %ebp,0x40a8b8
  40110c:	75 0c                	jne    0x40111a
  40110e:	33 d2                	xor    %edx,%edx
  401110:	b9 e0 84 40 00       	mov    $0x4084e0,%ecx
  401115:	e8 0b 02 00 00       	call   0x401325
  40111a:	6a 01                	push   $0x1
  40111c:	58                   	pop    %eax
  40111d:	e9 e6 01 00 00       	jmp    0x401308
  401122:	66 39 2d 4c a4 40 00 	cmp    %bp,0x40a44c
  401129:	75 70                	jne    0x40119b
  40112b:	8d 44 24 10          	lea    0x10(%esp),%eax
  40112f:	89 6c 24 10          	mov    %ebp,0x10(%esp)
  401133:	50                   	push   %eax
  401134:	68 19 01 02 00       	push   $0x20119
  401139:	55                   	push   %ebp
  40113a:	ff 35 54 81 40 00    	push   0x408154
  401140:	68 01 00 00 80       	push   $0x80000001
  401145:	ff 15 14 80 40 00    	call   *0x408014
  40114b:	85 c0                	test   %eax,%eax
  40114d:	75 20                	jne    0x40116f
  40114f:	8b 15 64 81 40 00    	mov    0x408164,%edx
  401155:	8b 4c 24 10          	mov    0x10(%esp),%ecx
  401159:	53                   	push   %ebx
  40115a:	e8 69 02 00 00       	call   0x4013c8
  40115f:	8b f0                	mov    %eax,%esi
  401161:	ff 74 24 10          	push   0x10(%esp)
  401165:	ff 15 18 80 40 00    	call   *0x408018
  40116b:	3b f5                	cmp    %ebp,%esi
  40116d:	75 2c                	jne    0x40119b
  40116f:	53                   	push   %ebx
  401170:	68 c0 84 40 00       	push   $0x4084c0
  401175:	ba 6c 84 40 00       	mov    $0x40846c,%edx
  40117a:	b9 02 00 00 80       	mov    $0x80000002,%ecx
  40117f:	e8 80 02 00 00       	call   0x401404
  401184:	85 c0                	test   %eax,%eax
  401186:	75 0c                	jne    0x401194
  401188:	ba 68 84 40 00       	mov    $0x408468,%edx
  40118d:	8b cb                	mov    %ebx,%ecx
  40118f:	e8 7e 01 00 00       	call   0x401312
  401194:	8b cb                	mov    %ebx,%ecx
  401196:	e8 e9 02 00 00       	call   0x401484
  40119b:	8b cb                	mov    %ebx,%ecx
  40119d:	e8 a6 02 00 00       	call   0x401448
  4011a2:	39 2d b8 a8 40 00    	cmp    %ebp,0x40a8b8
  4011a8:	74 0a                	je     0x4011b4
  4011aa:	e8 2f 06 00 00       	call   0x4017de
  4011af:	e9 54 01 00 00       	jmp    0x401308
  4011b4:	6a 01                	push   $0x1
  4011b6:	5e                   	pop    %esi
  4011b7:	55                   	push   %ebp
  4011b8:	68 12 15 40 00       	push   $0x401512
  4011bd:	55                   	push   %ebp
  4011be:	6a 64                	push   $0x64
  4011c0:	ff 74 24 44          	push   0x44(%esp)
  4011c4:	89 74 24 24          	mov    %esi,0x24(%esp)
  4011c8:	ff 15 10 81 40 00    	call   *0x408110
  4011ce:	3b c5                	cmp    %ebp,%eax
  4011d0:	a3 bc a8 40 00       	mov    %eax,0x40a8bc
  4011d5:	75 07                	jne    0x4011de
  4011d7:	8b c6                	mov    %esi,%eax
  4011d9:	e9 2a 01 00 00       	jmp    0x401308
  4011de:	56                   	push   %esi
  4011df:	ff 74 24 38          	push   0x38(%esp)
  4011e3:	ff 15 14 81 40 00    	call   *0x408114
  4011e9:	8b 1d 18 81 40 00    	mov    0x408118,%ebx
  4011ef:	50                   	push   %eax
  4011f0:	56                   	push   %esi
  4011f1:	68 80 00 00 00       	push   $0x80
  4011f6:	ff 35 bc a8 40 00    	push   0x40a8bc
  4011fc:	ff d3                	call   *%ebx
  4011fe:	55                   	push   %ebp
  4011ff:	55                   	push   %ebp
  401200:	8d 44 24 1c          	lea    0x1c(%esp),%eax
  401204:	55                   	push   %ebp
  401205:	50                   	push   %eax
  401206:	ff 15 1c 81 40 00    	call   *0x40811c
  40120c:	3b c5                	cmp    %ebp,%eax
  40120e:	0f 84 da 00 00 00    	je     0x4012ee
  401214:	8b 3d 20 81 40 00    	mov    0x408120,%edi
  40121a:	8b 35 24 81 40 00    	mov    0x408124,%esi
  401220:	83 f8 ff             	cmp    $0xffffffff,%eax
  401223:	0f 84 db 00 00 00    	je     0x401304
  401229:	a1 bc a8 40 00       	mov    0x40a8bc,%eax
  40122e:	3b c5                	cmp    %ebp,%eax
  401230:	0f 84 ce 00 00 00    	je     0x401304
  401236:	8d 4c 24 14          	lea    0x14(%esp),%ecx
  40123a:	51                   	push   %ecx
  40123b:	50                   	push   %eax
  40123c:	ff 15 28 81 40 00    	call   *0x408128
  401242:	85 c0                	test   %eax,%eax
  401244:	75 16                	jne    0x40125c
  401246:	8d 44 24 14          	lea    0x14(%esp),%eax
  40124a:	50                   	push   %eax
  40124b:	ff 15 2c 81 40 00    	call   *0x40812c
  401251:	8d 44 24 14          	lea    0x14(%esp),%eax
  401255:	50                   	push   %eax
  401256:	ff 15 30 81 40 00    	call   *0x408130
  40125c:	39 2d bc a8 40 00    	cmp    %ebp,0x40a8bc
  401262:	0f 84 9c 00 00 00    	je     0x401304
  401268:	39 2d 44 a4 40 00    	cmp    %ebp,0x40a444
  40126e:	74 68                	je     0x4012d8
  401270:	39 2d b4 a8 40 00    	cmp    %ebp,0x40a8b4
  401276:	75 60                	jne    0x4012d8
  401278:	e8 61 05 00 00       	call   0x4017de
  40127d:	6a 01                	push   $0x1
  40127f:	3b c5                	cmp    %ebp,%eax
  401281:	59                   	pop    %ecx
  401282:	89 44 24 10          	mov    %eax,0x10(%esp)
  401286:	89 0d b4 a8 40 00    	mov    %ecx,0x40a8b4
  40128c:	75 60                	jne    0x4012ee
  40128e:	a1 bc a8 40 00       	mov    0x40a8bc,%eax
  401293:	3b c5                	cmp    %ebp,%eax
  401295:	74 6d                	je     0x401304
  401297:	68 5c 84 40 00       	push   $0x40845c
  40129c:	51                   	push   %ecx
  40129d:	50                   	push   %eax
  40129e:	ff 15 34 81 40 00    	call   *0x408134
  4012a4:	6a 01                	push   $0x1
  4012a6:	6a 01                	push   $0x1
  4012a8:	ff 35 bc a8 40 00    	push   0x40a8bc
  4012ae:	ff d6                	call   *%esi
  4012b0:	50                   	push   %eax
  4012b1:	ff d7                	call   *%edi
  4012b3:	55                   	push   %ebp
  4012b4:	6a 02                	push   $0x2
  4012b6:	ff 35 bc a8 40 00    	push   0x40a8bc
  4012bc:	ff d6                	call   *%esi
  4012be:	50                   	push   %eax
  4012bf:	ff d7                	call   *%edi
  4012c1:	6a 01                	push   $0x1
  4012c3:	6a 01                	push   $0x1
  4012c5:	ff 35 bc a8 40 00    	push   0x40a8bc
  4012cb:	ff d6                	call   *%esi
  4012cd:	50                   	push   %eax
  4012ce:	6a 28                	push   $0x28
  4012d0:	ff 35 bc a8 40 00    	push   0x40a8bc
  4012d6:	ff d3                	call   *%ebx
  4012d8:	55                   	push   %ebp
  4012d9:	55                   	push   %ebp
  4012da:	8d 44 24 1c          	lea    0x1c(%esp),%eax
  4012de:	55                   	push   %ebp
  4012df:	50                   	push   %eax
  4012e0:	ff 15 1c 81 40 00    	call   *0x40811c
  4012e6:	3b c5                	cmp    %ebp,%eax
  4012e8:	0f 85 32 ff ff ff    	jne    0x401220
  4012ee:	a1 bc a8 40 00       	mov    0x40a8bc,%eax
  4012f3:	3b c5                	cmp    %ebp,%eax
  4012f5:	74 0d                	je     0x401304
  4012f7:	50                   	push   %eax
  4012f8:	ff 15 38 81 40 00    	call   *0x408138
  4012fe:	89 2d bc a8 40 00    	mov    %ebp,0x40a8bc
  401304:	8b 44 24 10          	mov    0x10(%esp),%eax
  401308:	5f                   	pop    %edi
  401309:	5e                   	pop    %esi
  40130a:	5d                   	pop    %ebp
  40130b:	5b                   	pop    %ebx
  40130c:	83 c4 20             	add    $0x20,%esp
  40130f:	c2 10 00             	ret    $0x10
  401312:	56                   	push   %esi
  401313:	8a 02                	mov    (%edx),%al
  401315:	42                   	inc    %edx
  401316:	66 0f b6 f0          	movzbw %al,%si
  40131a:	66 89 31             	mov    %si,(%ecx)
  40131d:	41                   	inc    %ecx
  40131e:	41                   	inc    %ecx
  40131f:	84 c0                	test   %al,%al
  401321:	75 f0                	jne    0x401313
  401323:	5e                   	pop    %esi
  401324:	c3                   	ret    
  401325:	55                   	push   %ebp
  401326:	8b ec                	mov    %esp,%ebp
  401328:	81 ec 08 06 00 00    	sub    $0x608,%esp
  40132e:	66 83 a5 f8 f9 ff ff 	andw   $0x0,-0x608(%ebp)
  401335:	00 
  401336:	53                   	push   %ebx
  401337:	56                   	push   %esi
  401338:	57                   	push   %edi
  401339:	8b da                	mov    %edx,%ebx
  40133b:	8b f9                	mov    %ecx,%edi
  40133d:	ba 50 85 40 00       	mov    $0x408550,%edx
  401342:	8d 8d f8 f9 ff ff    	lea    -0x608(%ebp),%ecx
  401348:	e8 62 00 00 00       	call   0x4013af
  40134d:	85 ff                	test   %edi,%edi
  40134f:	be 4c 85 40 00       	mov    $0x40854c,%esi
  401354:	74 1a                	je     0x401370
  401356:	8b d6                	mov    %esi,%edx
  401358:	8d 8d f8 f9 ff ff    	lea    -0x608(%ebp),%ecx
  40135e:	e8 4c 00 00 00       	call   0x4013af
  401363:	8b d7                	mov    %edi,%edx
  401365:	8d 8d f8 f9 ff ff    	lea    -0x608(%ebp),%ecx
  40136b:	e8 3f 00 00 00       	call   0x4013af
  401370:	85 db                	test   %ebx,%ebx
  401372:	74 1b                	je     0x40138f
  401374:	8b d6                	mov    %esi,%edx
  401376:	8d 8d f8 f9 ff ff    	lea    -0x608(%ebp),%ecx
  40137c:	e8 2e 00 00 00       	call   0x4013af
  401381:	8d 85 f8 f9 ff ff    	lea    -0x608(%ebp),%eax
  401387:	53                   	push   %ebx
  401388:	50                   	push   %eax
  401389:	ff 15 78 80 40 00    	call   *0x408078
  40138f:	6a 10                	push   $0x10
  401391:	8d 85 f8 f9 ff ff    	lea    -0x608(%ebp),%eax
  401397:	ff 35 58 81 40 00    	push   0x408158
  40139d:	50                   	push   %eax
  40139e:	ff 35 bc a8 40 00    	push   0x40a8bc
  4013a4:	ff 15 0c 81 40 00    	call   *0x40810c
  4013aa:	5f                   	pop    %edi
  4013ab:	5e                   	pop    %esi
  4013ac:	5b                   	pop    %ebx
  4013ad:	c9                   	leave  
  4013ae:	c3                   	ret    
  4013af:	56                   	push   %esi
  4013b0:	8b f1                	mov    %ecx,%esi
  4013b2:	57                   	push   %edi
  4013b3:	8b fa                	mov    %edx,%edi
  4013b5:	56                   	push   %esi
  4013b6:	ff 15 90 80 40 00    	call   *0x408090
  4013bc:	8b d7                	mov    %edi,%edx
  4013be:	8d 0c 46             	lea    (%esi,%eax,2),%ecx
  4013c1:	5f                   	pop    %edi
  4013c2:	5e                   	pop    %esi
  4013c3:	e9 4a ff ff ff       	jmp    0x401312
  4013c8:	55                   	push   %ebp
  4013c9:	8b ec                	mov    %esp,%ebp
  4013cb:	51                   	push   %ecx
  4013cc:	51                   	push   %ecx
  4013cd:	8d 45 f8             	lea    -0x8(%ebp),%eax
  4013d0:	83 65 fc 00          	andl   $0x0,-0x4(%ebp)
  4013d4:	50                   	push   %eax
  4013d5:	8d 45 fc             	lea    -0x4(%ebp),%eax
  4013d8:	ff 75 08             	push   0x8(%ebp)
  4013db:	c7 45 f8 08 02 00 00 	movl   $0x208,-0x8(%ebp)
  4013e2:	50                   	push   %eax
  4013e3:	6a 00                	push   $0x0
  4013e5:	52                   	push   %edx
  4013e6:	51                   	push   %ecx
  4013e7:	ff 15 10 80 40 00    	call   *0x408010
  4013ed:	83 7d fc 01          	cmpl   $0x1,-0x4(%ebp)
  4013f1:	74 04                	je     0x4013f7
  4013f3:	33 c0                	xor    %eax,%eax
  4013f5:	eb 09                	jmp    0x401400
  4013f7:	33 c9                	xor    %ecx,%ecx
  4013f9:	85 c0                	test   %eax,%eax
  4013fb:	0f 94 c1             	sete   %cl
  4013fe:	8b c1                	mov    %ecx,%eax
  401400:	c9                   	leave  
  401401:	c2 04 00             	ret    $0x4
  401404:	55                   	push   %ebp
  401405:	8b ec                	mov    %esp,%ebp
  401407:	51                   	push   %ecx
  401408:	83 65 fc 00          	andl   $0x0,-0x4(%ebp)
  40140c:	8d 45 fc             	lea    -0x4(%ebp),%eax
  40140f:	50                   	push   %eax
  401410:	68 19 01 02 00       	push   $0x20119
  401415:	6a 00                	push   $0x0
  401417:	52                   	push   %edx
  401418:	51                   	push   %ecx
  401419:	ff 15 14 80 40 00    	call   *0x408014
  40141f:	85 c0                	test   %eax,%eax
  401421:	74 04                	je     0x401427
  401423:	33 c0                	xor    %eax,%eax
  401425:	eb 1d                	jmp    0x401444
  401427:	8b 55 08             	mov    0x8(%ebp),%edx
  40142a:	8b 4d fc             	mov    -0x4(%ebp),%ecx
  40142d:	56                   	push   %esi
  40142e:	ff 75 0c             	push   0xc(%ebp)
  401431:	e8 92 ff ff ff       	call   0x4013c8
  401436:	8b f0                	mov    %eax,%esi
  401438:	ff 75 fc             	push   -0x4(%ebp)
  40143b:	ff 15 18 80 40 00    	call   *0x408018
  401441:	8b c6                	mov    %esi,%eax
  401443:	5e                   	pop    %esi
  401444:	c9                   	leave  
  401445:	c2 08 00             	ret    $0x8
  401448:	66 8b 11             	mov    (%ecx),%dx
  40144b:	33 c0                	xor    %eax,%eax
  40144d:	66 85 d2             	test   %dx,%dx
  401450:	74 31                	je     0x401483
  401452:	56                   	push   %esi
  401453:	8b f1                	mov    %ecx,%esi
  401455:	66 83 fa 2f          	cmp    $0x2f,%dx
  401459:	75 05                	jne    0x401460
  40145b:	66 c7 06 5c 00       	movw   $0x5c,(%esi)
  401460:	40                   	inc    %eax
  401461:	46                   	inc    %esi
  401462:	46                   	inc    %esi
  401463:	66 8b 16             	mov    (%esi),%dx
  401466:	66 85 d2             	test   %dx,%dx
  401469:	75 ea                	jne    0x401455
  40146b:	85 c0                	test   %eax,%eax
  40146d:	5e                   	pop    %esi
  40146e:	74 13                	je     0x401483
  401470:	66 83 7c 41 fe 5c    	cmpw   $0x5c,-0x2(%ecx,%eax,2)
  401476:	74 0b                	je     0x401483
  401478:	66 c7 04 41 5c 00    	movw   $0x5c,(%ecx,%eax,2)
  40147e:	66 21 54 41 02       	and    %dx,0x2(%ecx,%eax,2)
  401483:	c3                   	ret    
  401484:	56                   	push   %esi
  401485:	8b f1                	mov    %ecx,%esi
  401487:	e8 bc ff ff ff       	call   0x401448
  40148c:	ba 54 84 40 00       	mov    $0x408454,%edx
  401491:	8b ce                	mov    %esi,%ecx
  401493:	e8 12 00 00 00       	call   0x4014aa
  401498:	85 c0                	test   %eax,%eax
  40149a:	75 0c                	jne    0x4014a8
  40149c:	ba 58 85 40 00       	mov    $0x408558,%edx
  4014a1:	8b ce                	mov    %esi,%ecx
  4014a3:	e8 07 ff ff ff       	call   0x4013af
  4014a8:	5e                   	pop    %esi
  4014a9:	c3                   	ret    
  4014aa:	51                   	push   %ecx
  4014ab:	53                   	push   %ebx
  4014ac:	55                   	push   %ebp
  4014ad:	56                   	push   %esi
  4014ae:	57                   	push   %edi
  4014af:	89 54 24 10          	mov    %edx,0x10(%esp)
  4014b3:	8b f1                	mov    %ecx,%esi
  4014b5:	66 83 3e 00          	cmpw   $0x0,(%esi)
  4014b9:	74 2b                	je     0x4014e6
  4014bb:	8b 7c 24 10          	mov    0x10(%esp),%edi
  4014bf:	8b de                	mov    %esi,%ebx
  4014c1:	8a 0f                	mov    (%edi),%cl
  4014c3:	84 c9                	test   %cl,%cl
  4014c5:	74 23                	je     0x4014ea
  4014c7:	e8 26 00 00 00       	call   0x4014f2
  4014cc:	66 8b 0b             	mov    (%ebx),%cx
  4014cf:	66 0f b6 e8          	movzbw %al,%bp
  4014d3:	e8 28 00 00 00       	call   0x401500
  4014d8:	66 3b c5             	cmp    %bp,%ax
  4014db:	75 05                	jne    0x4014e2
  4014dd:	47                   	inc    %edi
  4014de:	43                   	inc    %ebx
  4014df:	43                   	inc    %ebx
  4014e0:	eb df                	jmp    0x4014c1
  4014e2:	46                   	inc    %esi
  4014e3:	46                   	inc    %esi
  4014e4:	eb cf                	jmp    0x4014b5
  4014e6:	33 c0                	xor    %eax,%eax
  4014e8:	eb 02                	jmp    0x4014ec
  4014ea:	8b c6                	mov    %esi,%eax
  4014ec:	5f                   	pop    %edi
  4014ed:	5e                   	pop    %esi
  4014ee:	5d                   	pop    %ebp
  4014ef:	5b                   	pop    %ebx
  4014f0:	59                   	pop    %ecx
  4014f1:	c3                   	ret    
  4014f2:	8a c1                	mov    %cl,%al
  4014f4:	3c 41                	cmp    $0x41,%al
  4014f6:	7c 07                	jl     0x4014ff
  4014f8:	3c 5a                	cmp    $0x5a,%al
  4014fa:	7f 03                	jg     0x4014ff
  4014fc:	83 c0 20             	add    $0x20,%eax
  4014ff:	c3                   	ret    
  401500:	8b c1                	mov    %ecx,%eax
  401502:	66 3d 41 00          	cmp    $0x41,%ax
  401506:	72 09                	jb     0x401511
  401508:	66 3d 5a 00          	cmp    $0x5a,%ax
  40150c:	77 03                	ja     0x401511
  40150e:	83 c0 20             	add    $0x20,%eax
  401511:	c3                   	ret    
  401512:	55                   	push   %ebp
  401513:	8b ec                	mov    %esp,%ebp
  401515:	81 ec 10 04 00 00    	sub    $0x410,%esp
  40151b:	8b 45 0c             	mov    0xc(%ebp),%eax
  40151e:	56                   	push   %esi
  40151f:	83 e8 10             	sub    $0x10,%eax
  401522:	57                   	push   %edi
  401523:	0f 84 4d 01 00 00    	je     0x401676
  401529:	2d 00 01 00 00       	sub    $0x100,%eax
  40152e:	0f 84 e4 00 00 00    	je     0x401618
  401534:	48                   	dec    %eax
  401535:	74 07                	je     0x40153e
  401537:	33 c0                	xor    %eax,%eax
  401539:	e9 40 01 00 00       	jmp    0x40167e
  40153e:	0f b7 45 10          	movzwl 0x10(%ebp),%eax
  401542:	48                   	dec    %eax
  401543:	74 6a                	je     0x4015af
  401545:	48                   	dec    %eax
  401546:	0f 84 2a 01 00 00    	je     0x401676
  40154c:	83 e8 6e             	sub    $0x6e,%eax
  40154f:	75 e6                	jne    0x401537
  401551:	8d 85 f0 fb ff ff    	lea    -0x410(%ebp),%eax
  401557:	68 04 01 00 00       	push   $0x104
  40155c:	50                   	push   %eax
  40155d:	6a 6f                	push   $0x6f
  40155f:	ff 75 08             	push   0x8(%ebp)
  401562:	ff 15 00 81 40 00    	call   *0x408100
  401568:	8b 4d 08             	mov    0x8(%ebp),%ecx
  40156b:	8d 85 f8 fd ff ff    	lea    -0x208(%ebp),%eax
  401571:	50                   	push   %eax
  401572:	8d 85 f0 fb ff ff    	lea    -0x410(%ebp),%eax
  401578:	50                   	push   %eax
  401579:	6a 41                	push   $0x41
  40157b:	ba 60 85 40 00       	mov    $0x408560,%edx
  401580:	e8 ff 00 00 00       	call   0x401684
  401585:	85 c0                	test   %eax,%eax
  401587:	0f 84 ee 00 00 00    	je     0x40167b
  40158d:	8d 8d f8 fd ff ff    	lea    -0x208(%ebp),%ecx
  401593:	e8 ec fe ff ff       	call   0x401484
  401598:	8d 85 f8 fd ff ff    	lea    -0x208(%ebp),%eax
  40159e:	50                   	push   %eax
  40159f:	6a 6f                	push   $0x6f
  4015a1:	ff 75 08             	push   0x8(%ebp)
  4015a4:	ff 15 34 81 40 00    	call   *0x408134
  4015aa:	e9 cc 00 00 00       	jmp    0x40167b
  4015af:	33 ff                	xor    %edi,%edi
  4015b1:	39 3d b4 a8 40 00    	cmp    %edi,0x40a8b4
  4015b7:	0f 85 b9 00 00 00    	jne    0x401676
  4015bd:	39 3d 44 a4 40 00    	cmp    %edi,0x40a444
  4015c3:	0f 85 b2 00 00 00    	jne    0x40167b
  4015c9:	53                   	push   %ebx
  4015ca:	6a 01                	push   $0x1
  4015cc:	8b 35 24 81 40 00    	mov    0x408124,%esi
  4015d2:	5b                   	pop    %ebx
  4015d3:	53                   	push   %ebx
  4015d4:	6a 02                	push   $0x2
  4015d6:	ff 75 08             	push   0x8(%ebp)
  4015d9:	ff d6                	call   *%esi
  4015db:	50                   	push   %eax
  4015dc:	6a 28                	push   $0x28
  4015de:	ff 75 08             	push   0x8(%ebp)
  4015e1:	ff 15 18 81 40 00    	call   *0x408118
  4015e7:	57                   	push   %edi
  4015e8:	8b 3d 20 81 40 00    	mov    0x408120,%edi
  4015ee:	ff 35 30 a2 40 00    	push   0x40a230
  4015f4:	ff d7                	call   *%edi
  4015f6:	6a 00                	push   $0x0
  4015f8:	6a 70                	push   $0x70
  4015fa:	ff 75 08             	push   0x8(%ebp)
  4015fd:	ff d6                	call   *%esi
  4015ff:	50                   	push   %eax
  401600:	ff d7                	call   *%edi
  401602:	6a 00                	push   $0x0
  401604:	53                   	push   %ebx
  401605:	ff 75 08             	push   0x8(%ebp)
  401608:	ff d6                	call   *%esi
  40160a:	50                   	push   %eax
  40160b:	ff d7                	call   *%edi
  40160d:	89 1d 44 a4 40 00    	mov    %ebx,0x40a444
  401613:	8b c3                	mov    %ebx,%eax
  401615:	5b                   	pop    %ebx
  401616:	eb 66                	jmp    0x40167e
  401618:	8b 7d 08             	mov    0x8(%ebp),%edi
  40161b:	8b 35 24 81 40 00    	mov    0x408124,%esi
  401621:	6a 6f                	push   $0x6f
  401623:	57                   	push   %edi
  401624:	ff d6                	call   *%esi
  401626:	6a 71                	push   $0x71
  401628:	57                   	push   %edi
  401629:	a3 30 a2 40 00       	mov    %eax,0x40a230
  40162e:	ff d6                	call   *%esi
  401630:	6a 72                	push   $0x72
  401632:	57                   	push   %edi
  401633:	a3 ac a8 40 00       	mov    %eax,0x40a8ac
  401638:	ff d6                	call   *%esi
  40163a:	ff 35 5c 81 40 00    	push   0x40815c
  401640:	a3 48 a4 40 00       	mov    %eax,0x40a448
  401645:	57                   	push   %edi
  401646:	ff 15 04 81 40 00    	call   *0x408104
  40164c:	68 4c a4 40 00       	push   $0x40a44c
  401651:	6a 6f                	push   $0x6f
  401653:	57                   	push   %edi
  401654:	ff 15 34 81 40 00    	call   *0x408134
  40165a:	8b 35 08 81 40 00    	mov    0x408108,%esi
  401660:	6a 00                	push   $0x0
  401662:	ff 35 48 a4 40 00    	push   0x40a448
  401668:	ff d6                	call   *%esi
  40166a:	6a 00                	push   $0x0
  40166c:	ff 35 ac a8 40 00    	push   0x40a8ac
  401672:	ff d6                	call   *%esi
  401674:	eb 05                	jmp    0x40167b
  401676:	e8 c1 00 00 00       	call   0x40173c
  40167b:	6a 01                	push   $0x1
  40167d:	58                   	pop    %eax
  40167e:	5f                   	pop    %edi
  40167f:	5e                   	pop    %esi
  401680:	c9                   	leave  
  401681:	c2 10 00             	ret    $0x10
  401684:	55                   	push   %ebp
  401685:	8b ec                	mov    %esp,%ebp
  401687:	81 ec 28 02 00 00    	sub    $0x228,%esp
  40168d:	8d 85 d8 fd ff ff    	lea    -0x228(%ebp),%eax
  401693:	66 83 a5 d8 fd ff ff 	andw   $0x0,-0x228(%ebp)
  40169a:	00 
  40169b:	83 65 e4 00          	andl   $0x0,-0x1c(%ebp)
  40169f:	89 45 e8             	mov    %eax,-0x18(%ebp)
  4016a2:	8b 45 08             	mov    0x8(%ebp),%eax
  4016a5:	89 4d e0             	mov    %ecx,-0x20(%ebp)
  4016a8:	89 45 f0             	mov    %eax,-0x10(%ebp)
  4016ab:	8b 45 0c             	mov    0xc(%ebp),%eax
  4016ae:	8b c8                	mov    %eax,%ecx
  4016b0:	89 45 f8             	mov    %eax,-0x8(%ebp)
  4016b3:	f7 d9                	neg    %ecx
  4016b5:	1b c9                	sbb    %ecx,%ecx
  4016b7:	8d 45 e0             	lea    -0x20(%ebp),%eax
  4016ba:	81 e1 e6 16 40 00    	and    $0x4016e6,%ecx
  4016c0:	50                   	push   %eax
  4016c1:	89 55 ec             	mov    %edx,-0x14(%ebp)
  4016c4:	89 4d f4             	mov    %ecx,-0xc(%ebp)
  4016c7:	ff 15 ec 80 40 00    	call   *0x4080ec
  4016cd:	85 c0                	test   %eax,%eax
  4016cf:	74 0f                	je     0x4016e0
  4016d1:	ff 75 10             	push   0x10(%ebp)
  4016d4:	50                   	push   %eax
  4016d5:	ff 15 f0 80 40 00    	call   *0x4080f0
  4016db:	6a 01                	push   $0x1
  4016dd:	58                   	pop    %eax
  4016de:	eb 02                	jmp    0x4016e2
  4016e0:	33 c0                	xor    %eax,%eax
  4016e2:	c9                   	leave  
  4016e3:	c2 0c 00             	ret    $0xc
  4016e6:	55                   	push   %ebp
  4016e7:	8b ec                	mov    %esp,%ebp
  4016e9:	81 ec 08 02 00 00    	sub    $0x208,%esp
  4016ef:	8b 45 0c             	mov    0xc(%ebp),%eax
  4016f2:	48                   	dec    %eax
  4016f3:	74 2e                	je     0x401723
  4016f5:	48                   	dec    %eax
  4016f6:	75 3e                	jne    0x401736
  4016f8:	8d 85 f8 fd ff ff    	lea    -0x208(%ebp),%eax
  4016fe:	50                   	push   %eax
  4016ff:	ff 75 10             	push   0x10(%ebp)
  401702:	ff 15 f0 80 40 00    	call   *0x4080f0
  401708:	85 c0                	test   %eax,%eax
  40170a:	75 07                	jne    0x401713
  40170c:	66 21 85 f8 fd ff ff 	and    %ax,-0x208(%ebp)
  401713:	8d 85 f8 fd ff ff    	lea    -0x208(%ebp),%eax
  401719:	50                   	push   %eax
  40171a:	6a 00                	push   $0x0
  40171c:	68 68 04 00 00       	push   $0x468
  401721:	eb 0a                	jmp    0x40172d
  401723:	ff 75 14             	push   0x14(%ebp)
  401726:	6a 01                	push   $0x1
  401728:	68 67 04 00 00       	push   $0x467
  40172d:	ff 75 08             	push   0x8(%ebp)
  401730:	ff 15 18 81 40 00    	call   *0x408118
  401736:	33 c0                	xor    %eax,%eax
  401738:	c9                   	leave  
  401739:	c2 10 00             	ret    $0x10
  40173c:	83 3d 44 a4 40 00 00 	cmpl   $0x0,0x40a444
  401743:	74 29                	je     0x40176e
  401745:	83 3d b4 a8 40 00 00 	cmpl   $0x0,0x40a8b4
  40174c:	75 20                	jne    0x40176e
  40174e:	68 24 01 00 00       	push   $0x124
  401753:	68 10 84 40 00       	push   $0x408410
  401758:	68 a8 85 40 00       	push   $0x4085a8
  40175d:	ff 35 bc a8 40 00    	push   0x40a8bc
  401763:	ff 15 0c 81 40 00    	call   *0x40810c
  401769:	83 f8 06             	cmp    $0x6,%eax
  40176c:	75 13                	jne    0x401781
  40176e:	ff 35 bc a8 40 00    	push   0x40a8bc
  401774:	ff 15 38 81 40 00    	call   *0x408138
  40177a:	83 25 bc a8 40 00 00 	andl   $0x0,0x40a8bc
  401781:	c3                   	ret    
  401782:	8b c1                	mov    %ecx,%eax
  401784:	56                   	push   %esi
  401785:	57                   	push   %edi
  401786:	33 c9                	xor    %ecx,%ecx
  401788:	66 8b 10             	mov    (%eax),%dx
  40178b:	33 ff                	xor    %edi,%edi
  40178d:	66 85 d2             	test   %dx,%dx
  401790:	74 38                	je     0x4017ca
  401792:	be 20 a0 40 00       	mov    $0x40a020,%esi
  401797:	66 83 fa 20          	cmp    $0x20,%dx
  40179b:	75 04                	jne    0x4017a1
  40179d:	85 ff                	test   %edi,%edi
  40179f:	74 29                	je     0x4017ca
  4017a1:	66 83 fa 22          	cmp    $0x22,%dx
  4017a5:	75 0b                	jne    0x4017b2
  4017a7:	33 d2                	xor    %edx,%edx
  4017a9:	85 ff                	test   %edi,%edi
  4017ab:	0f 94 c2             	sete   %dl
  4017ae:	8b fa                	mov    %edx,%edi
  4017b0:	eb 0e                	jmp    0x4017c0
  4017b2:	81 fe 2e a2 40 00    	cmp    $0x40a22e,%esi
  4017b8:	73 1c                	jae    0x4017d6
  4017ba:	66 89 16             	mov    %dx,(%esi)
  4017bd:	41                   	inc    %ecx
  4017be:	46                   	inc    %esi
  4017bf:	46                   	inc    %esi
  4017c0:	40                   	inc    %eax
  4017c1:	40                   	inc    %eax
  4017c2:	66 8b 10             	mov    (%eax),%dx
  4017c5:	66 85 d2             	test   %dx,%dx
  4017c8:	75 cd                	jne    0x401797
  4017ca:	66 83 24 4d 20 a0 40 	andw   $0x0,0x40a020(,%ecx,2)
  4017d1:	00 00 
  4017d3:	5f                   	pop    %edi
  4017d4:	5e                   	pop    %esi
  4017d5:	c3                   	ret    
  4017d6:	6a 01                	push   $0x1
  4017d8:	ff 15 dc 80 40 00    	call   *0x4080dc
  4017de:	55                   	push   %ebp
  4017df:	8b ec                	mov    %esp,%ebp
  4017e1:	81 ec 50 0e 00 00    	sub    $0xe50,%esp
  4017e7:	53                   	push   %ebx
  4017e8:	56                   	push   %esi
  4017e9:	57                   	push   %edi
  4017ea:	bf 04 01 00 00       	mov    $0x104,%edi
  4017ef:	8d 85 90 f8 ff ff    	lea    -0x770(%ebp),%eax
  4017f5:	33 db                	xor    %ebx,%ebx
  4017f7:	57                   	push   %edi
  4017f8:	50                   	push   %eax
  4017f9:	53                   	push   %ebx
  4017fa:	89 5d fc             	mov    %ebx,-0x4(%ebp)
  4017fd:	89 5d f0             	mov    %ebx,-0x10(%ebp)
  401800:	89 5d d8             	mov    %ebx,-0x28(%ebp)
  401803:	c7 45 e4 55 2a 40 00 	movl   $0x402a55,-0x1c(%ebp)
  40180a:	c7 45 e8 65 2a 40 00 	movl   $0x402a65,-0x18(%ebp)
  401811:	c7 45 a8 55 2a 40 00 	movl   $0x402a55,-0x58(%ebp)
  401818:	c7 45 ac 65 2a 40 00 	movl   $0x402a65,-0x54(%ebp)
  40181f:	ff 15 48 80 40 00    	call   *0x408048
  401825:	3b c3                	cmp    %ebx,%eax
  401827:	0f 84 7c 07 00 00    	je     0x401fa9
  40182d:	3b c7                	cmp    %edi,%eax
  40182f:	0f 87 74 07 00 00    	ja     0x401fa9
  401835:	8d 95 90 f8 ff ff    	lea    -0x770(%ebp),%edx
  40183b:	8d 4d 90             	lea    -0x70(%ebp),%ecx
  40183e:	e8 f8 33 00 00       	call   0x404c3b
  401843:	8b f0                	mov    %eax,%esi
  401845:	3b f3                	cmp    %ebx,%esi
  401847:	75 30                	jne    0x401879
  401849:	8d 55 c4             	lea    -0x3c(%ebp),%edx
  40184c:	8d 4d 90             	lea    -0x70(%ebp),%ecx
  40184f:	89 5d c4             	mov    %ebx,-0x3c(%ebp)
  401852:	89 5d c8             	mov    %ebx,-0x38(%ebp)
  401855:	e8 58 0a 00 00       	call   0x4022b2
  40185a:	85 c0                	test   %eax,%eax
  40185c:	75 09                	jne    0x401867
  40185e:	c7 45 f0 dc 87 40 00 	movl   $0x4087dc,-0x10(%ebp)
  401865:	eb 19                	jmp    0x401880
  401867:	53                   	push   %ebx
  401868:	8d 55 c4             	lea    -0x3c(%ebp),%edx
  40186b:	8d 4d 90             	lea    -0x70(%ebp),%ecx
  40186e:	e8 07 35 00 00       	call   0x404d7a
  401873:	8b f0                	mov    %eax,%esi
  401875:	3b f3                	cmp    %ebx,%esi
  401877:	74 1c                	je     0x401895
  401879:	c7 45 fc 0b 00 00 00 	movl   $0xb,-0x4(%ebp)
  401880:	39 5d f0             	cmp    %ebx,-0x10(%ebp)
  401883:	74 07                	je     0x40188c
  401885:	c7 45 fc 0b 00 00 00 	movl   $0xb,-0x4(%ebp)
  40188c:	39 5d fc             	cmp    %ebx,-0x4(%ebp)
  40188f:	0f 85 f5 05 00 00    	jne    0x401e8a
  401895:	39 1d b8 a8 40 00    	cmp    %ebx,0x40a8b8
  40189b:	be 4c a4 40 00       	mov    $0x40a44c,%esi
  4018a0:	75 10                	jne    0x4018b2
  4018a2:	57                   	push   %edi
  4018a3:	56                   	push   %esi
  4018a4:	6a 6f                	push   $0x6f
  4018a6:	ff 35 bc a8 40 00    	push   0x40a8bc
  4018ac:	ff 15 00 81 40 00    	call   *0x408100
  4018b2:	8d 4d 88             	lea    -0x78(%ebp),%ecx
  4018b5:	e8 34 35 00 00       	call   0x404dee
  4018ba:	33 d2                	xor    %edx,%edx
  4018bc:	8d 8d 64 ff ff ff    	lea    -0x9c(%ebp),%ecx
  4018c2:	e8 88 3c 00 00       	call   0x40554f
  4018c7:	8b ce                	mov    %esi,%ecx
  4018c9:	89 5d 80             	mov    %ebx,-0x80(%ebp)
  4018cc:	e8 32 11 00 00       	call   0x402a03
  4018d1:	a1 4c a4 40 00       	mov    0x40a44c,%eax
  4018d6:	33 ff                	xor    %edi,%edi
  4018d8:	6a 01                	push   $0x1
  4018da:	66 3b c3             	cmp    %bx,%ax
  4018dd:	5a                   	pop    %edx
  4018de:	74 18                	je     0x4018f8
  4018e0:	b9 4e a4 40 00       	mov    $0x40a44e,%ecx
  4018e5:	66 3d 20 00          	cmp    $0x20,%ax
  4018e9:	74 02                	je     0x4018ed
  4018eb:	8b fa                	mov    %edx,%edi
  4018ed:	66 8b 01             	mov    (%ecx),%ax
  4018f0:	42                   	inc    %edx
  4018f1:	41                   	inc    %ecx
  4018f2:	41                   	inc    %ecx
  4018f3:	66 3b c3             	cmp    %bx,%ax
  4018f6:	75 ed                	jne    0x4018e5
  4018f8:	66 89 1c 7d 4c a4 40 	mov    %bx,0x40a44c(,%edi,2)
  4018ff:	00 
  401900:	66 39 1d 4c a4 40 00 	cmp    %bx,0x40a44c
  401907:	75 0c                	jne    0x401915
  401909:	33 d2                	xor    %edx,%edx
  40190b:	b9 cc 87 40 00       	mov    $0x4087cc,%ecx
  401910:	e9 8f 06 00 00       	jmp    0x401fa4
  401915:	8b ce                	mov    %esi,%ecx
  401917:	e8 2c fb ff ff       	call   0x401448
  40191c:	e8 d6 07 00 00       	call   0x4020f7
  401921:	3b c3                	cmp    %ebx,%eax
  401923:	89 45 e0             	mov    %eax,-0x20(%ebp)
  401926:	74 07                	je     0x40192f
  401928:	c7 45 fc 0b 00 00 00 	movl   $0xb,-0x4(%ebp)
  40192f:	56                   	push   %esi
  401930:	ff 15 90 80 40 00    	call   *0x408090
  401936:	39 5d fc             	cmp    %ebx,-0x4(%ebp)
  401939:	89 45 ec             	mov    %eax,-0x14(%ebp)
  40193c:	75 35                	jne    0x401973
  40193e:	bf 00 00 04 00       	mov    $0x40000,%edi
  401943:	8d 4d e4             	lea    -0x1c(%ebp),%ecx
  401946:	8b d7                	mov    %edi,%edx
  401948:	ff 55 e4             	call   *-0x1c(%ebp)
  40194b:	3b c3                	cmp    %ebx,%eax
  40194d:	89 45 80             	mov    %eax,-0x80(%ebp)
  401950:	75 09                	jne    0x40195b
  401952:	c7 45 fc 02 00 00 00 	movl   $0x2,-0x4(%ebp)
  401959:	eb 18                	jmp    0x401973
  40195b:	8d 45 88             	lea    -0x78(%ebp),%eax
  40195e:	89 7d 84             	mov    %edi,-0x7c(%ebp)
  401961:	89 85 74 ff ff ff    	mov    %eax,-0x8c(%ebp)
  401967:	89 9d 7c ff ff ff    	mov    %ebx,-0x84(%ebp)
  40196d:	89 9d 78 ff ff ff    	mov    %ebx,-0x88(%ebp)
  401973:	8d 8d c0 fe ff ff    	lea    -0x140(%ebp),%ecx
  401979:	e8 f0 10 00 00       	call   0x402a6e
  40197e:	39 5d fc             	cmp    %ebx,-0x4(%ebp)
  401981:	0f 85 dc 04 00 00    	jne    0x401e63
  401987:	8d 45 a8             	lea    -0x58(%ebp),%eax
  40198a:	8d 95 64 ff ff ff    	lea    -0x9c(%ebp),%edx
  401990:	50                   	push   %eax
  401991:	8d 45 e4             	lea    -0x1c(%ebp),%eax
  401994:	50                   	push   %eax
  401995:	8d 8d c0 fe ff ff    	lea    -0x140(%ebp),%ecx
  40199b:	e8 ad 16 00 00       	call   0x40304d
  4019a0:	3b c3                	cmp    %ebx,%eax
  4019a2:	89 45 fc             	mov    %eax,-0x4(%ebp)
  4019a5:	0f 85 b8 04 00 00    	jne    0x401e63
  4019ab:	83 4d c8 ff          	orl    $0xffffffff,-0x38(%ebp)
  4019af:	39 1d b8 a8 40 00    	cmp    %ebx,0x40a8b8
  4019b5:	89 5d cc             	mov    %ebx,-0x34(%ebp)
  4019b8:	89 5d b0             	mov    %ebx,-0x50(%ebp)
  4019bb:	89 1d c0 a8 40 00    	mov    %ebx,0x40a8c0
  4019c1:	75 32                	jne    0x4019f5
  4019c3:	8b 3d 08 81 40 00    	mov    0x408108,%edi
  4019c9:	6a 05                	push   $0x5
  4019cb:	ff 35 48 a4 40 00    	push   0x40a448
  4019d1:	ff d7                	call   *%edi
  4019d3:	6a 05                	push   $0x5
  4019d5:	ff 35 ac a8 40 00    	push   0x40a8ac
  4019db:	ff d7                	call   *%edi
  4019dd:	ff b5 08 ff ff ff    	push   -0xf8(%ebp)
  4019e3:	53                   	push   %ebx
  4019e4:	68 06 04 00 00       	push   $0x406
  4019e9:	ff 35 48 a4 40 00    	push   0x40a448
  4019ef:	ff 15 18 81 40 00    	call   *0x408118
  4019f5:	39 9d 08 ff ff ff    	cmp    %ebx,-0xf8(%ebp)
  4019fb:	89 5d f4             	mov    %ebx,-0xc(%ebp)
  4019fe:	0f 86 f0 03 00 00    	jbe    0x401df4
  401a04:	39 1d b8 a8 40 00    	cmp    %ebx,0x40a8b8
  401a0a:	89 5d b8             	mov    %ebx,-0x48(%ebp)
  401a0d:	89 5d dc             	mov    %ebx,-0x24(%ebp)
  401a10:	75 78                	jne    0x401a8a
  401a12:	8b 3d f8 80 40 00    	mov    0x4080f8,%edi
  401a18:	6a 01                	push   $0x1
  401a1a:	53                   	push   %ebx
  401a1b:	53                   	push   %ebx
  401a1c:	8d 85 48 ff ff ff    	lea    -0xb8(%ebp),%eax
  401a22:	53                   	push   %ebx
  401a23:	50                   	push   %eax
  401a24:	ff d7                	call   *%edi
  401a26:	85 c0                	test   %eax,%eax
  401a28:	74 4b                	je     0x401a75
  401a2a:	8d 85 48 ff ff ff    	lea    -0xb8(%ebp),%eax
  401a30:	50                   	push   %eax
  401a31:	ff 35 bc a8 40 00    	push   0x40a8bc
  401a37:	ff 15 28 81 40 00    	call   *0x408128
  401a3d:	85 c0                	test   %eax,%eax
  401a3f:	75 1a                	jne    0x401a5b
  401a41:	8d 85 48 ff ff ff    	lea    -0xb8(%ebp),%eax
  401a47:	50                   	push   %eax
  401a48:	ff 15 2c 81 40 00    	call   *0x40812c
  401a4e:	8d 85 48 ff ff ff    	lea    -0xb8(%ebp),%eax
  401a54:	50                   	push   %eax
  401a55:	ff 15 30 81 40 00    	call   *0x408130
  401a5b:	39 1d bc a8 40 00    	cmp    %ebx,0x40a8bc
  401a61:	6a 01                	push   $0x1
  401a63:	0f 84 42 05 00 00    	je     0x401fab
  401a69:	53                   	push   %ebx
  401a6a:	53                   	push   %ebx
  401a6b:	8d 85 48 ff ff ff    	lea    -0xb8(%ebp),%eax
  401a71:	53                   	push   %ebx
  401a72:	50                   	push   %eax
  401a73:	eb af                	jmp    0x401a24
  401a75:	53                   	push   %ebx
  401a76:	ff 75 f4             	push   -0xc(%ebp)
  401a79:	68 02 04 00 00       	push   $0x402
  401a7e:	ff 35 48 a4 40 00    	push   0x40a448
  401a84:	ff 15 18 81 40 00    	call   *0x408118
  401a8a:	8b 55 f4             	mov    -0xc(%ebp),%edx
  401a8d:	53                   	push   %ebx
  401a8e:	8d 8d c0 fe ff ff    	lea    -0x140(%ebp),%ecx
  401a94:	e8 1c 31 00 00       	call   0x404bb5
  401a99:	3d 04 01 00 00       	cmp    $0x104,%eax
  401a9e:	0f 83 35 03 00 00    	jae    0x401dd9
  401aa4:	8b 45 ec             	mov    -0x14(%ebp),%eax
  401aa7:	8b 55 f4             	mov    -0xc(%ebp),%edx
  401aaa:	8d 8d c0 fe ff ff    	lea    -0x140(%ebp),%ecx
  401ab0:	8d 3c 45 4c a4 40 00 	lea    0x40a44c(,%eax,2),%edi
  401ab7:	57                   	push   %edi
  401ab8:	e8 f8 30 00 00       	call   0x404bb5
  401abd:	39 1d b8 a8 40 00    	cmp    %ebx,0x40a8b8
  401ac3:	75 0d                	jne    0x401ad2
  401ac5:	57                   	push   %edi
  401ac6:	ff 35 ac a8 40 00    	push   0x40a8ac
  401acc:	ff 15 04 81 40 00    	call   *0x408104
  401ad2:	8d 45 a8             	lea    -0x58(%ebp),%eax
  401ad5:	8d 95 64 ff ff ff    	lea    -0x9c(%ebp),%edx
  401adb:	50                   	push   %eax
  401adc:	8d 45 e4             	lea    -0x1c(%ebp),%eax
  401adf:	50                   	push   %eax
  401ae0:	8d 45 dc             	lea    -0x24(%ebp),%eax
  401ae3:	50                   	push   %eax
  401ae4:	8d 45 b8             	lea    -0x48(%ebp),%eax
  401ae7:	50                   	push   %eax
  401ae8:	8d 45 b0             	lea    -0x50(%ebp),%eax
  401aeb:	50                   	push   %eax
  401aec:	8d 45 cc             	lea    -0x34(%ebp),%eax
  401aef:	50                   	push   %eax
  401af0:	8d 45 c8             	lea    -0x38(%ebp),%eax
  401af3:	50                   	push   %eax
  401af4:	8d 8d c0 fe ff ff    	lea    -0x140(%ebp),%ecx
  401afa:	ff 75 f4             	push   -0xc(%ebp)
  401afd:	e8 49 2f 00 00       	call   0x404a4b
  401b02:	3b c3                	cmp    %ebx,%eax
  401b04:	89 45 fc             	mov    %eax,-0x4(%ebp)
  401b07:	0f 85 e7 02 00 00    	jne    0x401df4
  401b0d:	8b 45 ec             	mov    -0x14(%ebp),%eax
  401b10:	89 5d f8             	mov    %ebx,-0x8(%ebp)
  401b13:	c7 45 d4 04 00 00 00 	movl   $0x4,-0x2c(%ebp)
  401b1a:	66 39 1c 45 4c a4 40 	cmp    %bx,0x40a44c(,%eax,2)
  401b21:	00 
  401b22:	8d 04 45 4c a4 40 00 	lea    0x40a44c(,%eax,2),%eax
  401b29:	74 2a                	je     0x401b55
  401b2b:	8b 45 ec             	mov    -0x14(%ebp),%eax
  401b2e:	8d 04 45 4c a4 40 00 	lea    0x40a44c(,%eax,2),%eax
  401b35:	8b f8                	mov    %eax,%edi
  401b37:	66 83 38 2f          	cmpw   $0x2f,(%eax)
  401b3b:	75 0f                	jne    0x401b4c
  401b3d:	8b ce                	mov    %esi,%ecx
  401b3f:	66 89 1f             	mov    %bx,(%edi)
  401b42:	e8 99 05 00 00       	call   0x4020e0
  401b47:	66 c7 07 5c 00       	movw   $0x5c,(%edi)
  401b4c:	47                   	inc    %edi
  401b4d:	47                   	inc    %edi
  401b4e:	8b c7                	mov    %edi,%eax
  401b50:	66 39 1f             	cmp    %bx,(%edi)
  401b53:	75 e2                	jne    0x401b37
  401b55:	8b 4d f4             	mov    -0xc(%ebp),%ecx
  401b58:	8b 95 10 ff ff ff    	mov    -0xf0(%ebp),%edx
  401b5e:	83 e1 07             	and    $0x7,%ecx
  401b61:	b8 80 00 00 00       	mov    $0x80,%eax
  401b66:	d3 f8                	sar    %cl,%eax
  401b68:	8b 4d f4             	mov    -0xc(%ebp),%ecx
  401b6b:	c1 e9 03             	shr    $0x3,%ecx
  401b6e:	89 4d b4             	mov    %ecx,-0x4c(%ebp)
  401b71:	84 04 11             	test   %al,(%ecx,%edx,1)
  401b74:	89 45 c0             	mov    %eax,-0x40(%ebp)
  401b77:	74 0c                	je     0x401b85
  401b79:	8b ce                	mov    %esi,%ecx
  401b7b:	e8 60 05 00 00       	call   0x4020e0
  401b80:	e9 41 02 00 00       	jmp    0x401dc6
  401b85:	8d 85 9c fa ff ff    	lea    -0x564(%ebp),%eax
  401b8b:	56                   	push   %esi
  401b8c:	50                   	push   %eax
  401b8d:	ff 15 80 80 40 00    	call   *0x408080
  401b93:	39 5d f8             	cmp    %ebx,-0x8(%ebp)
  401b96:	74 4c                	je     0x401be4
  401b98:	83 7d f8 64          	cmpl   $0x64,-0x8(%ebp)
  401b9c:	0f 87 37 02 00 00    	ja     0x401dd9
  401ba2:	8d 85 9c fa ff ff    	lea    -0x564(%ebp),%eax
  401ba8:	50                   	push   %eax
  401ba9:	56                   	push   %esi
  401baa:	ff 15 80 80 40 00    	call   *0x408080
  401bb0:	ba c4 87 40 00       	mov    $0x4087c4,%edx
  401bb5:	8b ce                	mov    %esi,%ecx
  401bb7:	e8 f3 f7 ff ff       	call   0x4013af
  401bbc:	83 7d f8 01          	cmpl   $0x1,-0x8(%ebp)
  401bc0:	76 16                	jbe    0x401bd8
  401bc2:	56                   	push   %esi
  401bc3:	ff 15 90 80 40 00    	call   *0x408090
  401bc9:	8b 4d f8             	mov    -0x8(%ebp),%ecx
  401bcc:	8d 14 45 4c a4 40 00 	lea    0x40a44c(,%eax,2),%edx
  401bd3:	e8 cf 07 00 00       	call   0x4023a7
  401bd8:	56                   	push   %esi
  401bd9:	ff 15 4c 80 40 00    	call   *0x40804c
  401bdf:	83 f8 ff             	cmp    $0xffffffff,%eax
  401be2:	75 21                	jne    0x401c05
  401be4:	53                   	push   %ebx
  401be5:	56                   	push   %esi
  401be6:	ff 15 68 80 40 00    	call   *0x408068
  401bec:	8b d6                	mov    %esi,%edx
  401bee:	8d 4d d0             	lea    -0x30(%ebp),%ecx
  401bf1:	e8 94 30 00 00       	call   0x404c8a
  401bf6:	8b f8                	mov    %eax,%edi
  401bf8:	3b fb                	cmp    %ebx,%edi
  401bfa:	0f 84 f5 00 00 00    	je     0x401cf5
  401c00:	39 5d f8             	cmp    %ebx,-0x8(%ebp)
  401c03:	74 05                	je     0x401c0a
  401c05:	ff 45 f8             	incl   -0x8(%ebp)
  401c08:	eb 89                	jmp    0x401b93
  401c0a:	8b 45 ec             	mov    -0x14(%ebp),%eax
  401c0d:	ba b8 87 40 00       	mov    $0x4087b8,%edx
  401c12:	8d 0c 45 4c a4 40 00 	lea    0x40a44c(,%eax,2),%ecx
  401c19:	e8 8c f8 ff ff       	call   0x4014aa
  401c1e:	85 c0                	test   %eax,%eax
  401c20:	0f 85 a8 00 00 00    	jne    0x401cce
  401c26:	8b 45 ec             	mov    -0x14(%ebp),%eax
  401c29:	ba ac 87 40 00       	mov    $0x4087ac,%edx
  401c2e:	8d 0c 45 4c a4 40 00 	lea    0x40a44c(,%eax,2),%ecx
  401c35:	e8 70 f8 ff ff       	call   0x4014aa
  401c3a:	85 c0                	test   %eax,%eax
  401c3c:	0f 85 8c 00 00 00    	jne    0x401cce
  401c42:	39 1d b8 a8 40 00    	cmp    %ebx,0x40a8b8
  401c48:	75 78                	jne    0x401cc2
  401c4a:	ba 98 87 40 00       	mov    $0x408798,%edx
  401c4f:	8d 8d b0 f1 ff ff    	lea    -0xe50(%ebp),%ecx
  401c55:	e8 b8 f6 ff ff       	call   0x401312
  401c5a:	8d 85 b0 f1 ff ff    	lea    -0xe50(%ebp),%eax
  401c60:	56                   	push   %esi
  401c61:	50                   	push   %eax
  401c62:	ff 15 78 80 40 00    	call   *0x408078
  401c68:	ba 4c 85 40 00       	mov    $0x40854c,%edx
  401c6d:	8d 8d b0 f1 ff ff    	lea    -0xe50(%ebp),%ecx
  401c73:	e8 37 f7 ff ff       	call   0x4013af
  401c78:	8d 85 b0 f1 ff ff    	lea    -0xe50(%ebp),%eax
  401c7e:	50                   	push   %eax
  401c7f:	ff 15 90 80 40 00    	call   *0x408090
  401c85:	8d 94 45 b0 f1 ff ff 	lea    -0xe50(%ebp,%eax,2),%edx
  401c8c:	8b cf                	mov    %edi,%ecx
  401c8e:	e8 88 0d 00 00       	call   0x402a1b
  401c93:	8d 85 b0 f1 ff ff    	lea    -0xe50(%ebp),%eax
  401c99:	68 12 02 00 00       	push   $0x212
  401c9e:	68 8c 87 40 00       	push   $0x40878c
  401ca3:	50                   	push   %eax
  401ca4:	ff 35 bc a8 40 00    	push   0x40a8bc
  401caa:	ff 15 0c 81 40 00    	call   *0x40810c
  401cb0:	83 f8 03             	cmp    $0x3,%eax
  401cb3:	0f 84 29 01 00 00    	je     0x401de2
  401cb9:	83 f8 05             	cmp    $0x5,%eax
  401cbc:	0f 85 d1 fe ff ff    	jne    0x401b93
  401cc2:	c7 45 f8 01 00 00 00 	movl   $0x1,-0x8(%ebp)
  401cc9:	e9 c5 fe ff ff       	jmp    0x401b93
  401cce:	8b ce                	mov    %esi,%ecx
  401cd0:	e8 dc 02 00 00       	call   0x401fb1
  401cd5:	3d 03 00 10 00       	cmp    $0x100003,%eax
  401cda:	72 10                	jb     0x401cec
  401cdc:	3d 05 00 18 00       	cmp    $0x180005,%eax
  401ce1:	77 09                	ja     0x401cec
  401ce3:	c7 45 d4 01 00 00 00 	movl   $0x1,-0x2c(%ebp)
  401cea:	eb d6                	jmp    0x401cc2
  401cec:	c7 45 d4 02 00 00 00 	movl   $0x2,-0x2c(%ebp)
  401cf3:	eb cd                	jmp    0x401cc2
  401cf5:	8b 45 dc             	mov    -0x24(%ebp),%eax
  401cf8:	8b 4d b8             	mov    -0x48(%ebp),%ecx
  401cfb:	89 45 bc             	mov    %eax,-0x44(%ebp)
  401cfe:	8d 45 bc             	lea    -0x44(%ebp),%eax
  401d01:	50                   	push   %eax
  401d02:	8b 45 cc             	mov    -0x34(%ebp),%eax
  401d05:	8d 14 01             	lea    (%ecx,%eax,1),%edx
  401d08:	8d 4d d0             	lea    -0x30(%ebp),%ecx
  401d0b:	e8 08 30 00 00       	call   0x404d18
  401d10:	89 45 e0             	mov    %eax,-0x20(%ebp)
  401d13:	3b c3                	cmp    %ebx,%eax
  401d15:	8b 45 dc             	mov    -0x24(%ebp),%eax
  401d18:	75 05                	jne    0x401d1f
  401d1a:	39 45 bc             	cmp    %eax,-0x44(%ebp)
  401d1d:	74 0e                	je     0x401d2d
  401d1f:	c7 45 f0 74 87 40 00 	movl   $0x408774,-0x10(%ebp)
  401d26:	c7 45 fc 0b 00 00 00 	movl   $0xb,-0x4(%ebp)
  401d2d:	01 05 c0 a8 40 00    	add    %eax,0x40a8c0
  401d33:	8b 85 24 ff ff ff    	mov    -0xdc(%ebp),%eax
  401d39:	3b c3                	cmp    %ebx,%eax
  401d3b:	74 31                	je     0x401d6e
  401d3d:	8b 55 b4             	mov    -0x4c(%ebp),%edx
  401d40:	8a 4d c0             	mov    -0x40(%ebp),%cl
  401d43:	84 0c 02             	test   %cl,(%edx,%eax,1)
  401d46:	74 26                	je     0x401d6e
  401d48:	8b 85 28 ff ff ff    	mov    -0xd8(%ebp),%eax
  401d4e:	8b 4d f4             	mov    -0xc(%ebp),%ecx
  401d51:	8d 04 c8             	lea    (%eax,%ecx,8),%eax
  401d54:	8b 08                	mov    (%eax),%ecx
  401d56:	89 4d a0             	mov    %ecx,-0x60(%ebp)
  401d59:	8b 40 04             	mov    0x4(%eax),%eax
  401d5c:	89 45 a4             	mov    %eax,-0x5c(%ebp)
  401d5f:	8d 45 a0             	lea    -0x60(%ebp),%eax
  401d62:	50                   	push   %eax
  401d63:	53                   	push   %ebx
  401d64:	53                   	push   %ebx
  401d65:	ff 75 d0             	push   -0x30(%ebp)
  401d68:	ff 15 6c 80 40 00    	call   *0x40806c
  401d6e:	8d 4d d0             	lea    -0x30(%ebp),%ecx
  401d71:	e8 1c 2f 00 00       	call   0x404c92
  401d76:	39 5d fc             	cmp    %ebx,-0x4(%ebp)
  401d79:	75 79                	jne    0x401df4
  401d7b:	3b c3                	cmp    %ebx,%eax
  401d7d:	75 72                	jne    0x401df1
  401d7f:	8b 85 1c ff ff ff    	mov    -0xe4(%ebp),%eax
  401d85:	3b c3                	cmp    %ebx,%eax
  401d87:	74 1e                	je     0x401da7
  401d89:	8b 55 b4             	mov    -0x4c(%ebp),%edx
  401d8c:	8a 4d c0             	mov    -0x40(%ebp),%cl
  401d8f:	84 0c 02             	test   %cl,(%edx,%eax,1)
  401d92:	74 13                	je     0x401da7
  401d94:	8b 85 20 ff ff ff    	mov    -0xe0(%ebp),%eax
  401d9a:	8b 4d f4             	mov    -0xc(%ebp),%ecx
  401d9d:	ff 34 88             	push   (%eax,%ecx,4)
  401da0:	56                   	push   %esi
  401da1:	ff 15 68 80 40 00    	call   *0x408068
  401da7:	39 5d f8             	cmp    %ebx,-0x8(%ebp)
  401daa:	74 1a                	je     0x401dc6
  401dac:	8d 85 9c fa ff ff    	lea    -0x564(%ebp),%eax
  401db2:	6a 05                	push   $0x5
  401db4:	50                   	push   %eax
  401db5:	56                   	push   %esi
  401db6:	ff 15 70 80 40 00    	call   *0x408070
  401dbc:	85 c0                	test   %eax,%eax
  401dbe:	74 2b                	je     0x401deb
  401dc0:	8b 45 d4             	mov    -0x2c(%ebp),%eax
  401dc3:	09 45 d8             	or     %eax,-0x28(%ebp)
  401dc6:	ff 45 f4             	incl   -0xc(%ebp)
  401dc9:	8b 45 f4             	mov    -0xc(%ebp),%eax
  401dcc:	3b 85 08 ff ff ff    	cmp    -0xf8(%ebp),%eax
  401dd2:	73 20                	jae    0x401df4
  401dd4:	e9 2b fc ff ff       	jmp    0x401a04
  401dd9:	c7 45 fc 0b 00 00 00 	movl   $0xb,-0x4(%ebp)
  401de0:	eb 12                	jmp    0x401df4
  401de2:	c7 45 fc 64 00 00 00 	movl   $0x64,-0x4(%ebp)
  401de9:	eb 09                	jmp    0x401df4
  401deb:	ff 15 74 80 40 00    	call   *0x408074
  401df1:	89 45 e0             	mov    %eax,-0x20(%ebp)
  401df4:	8b 55 cc             	mov    -0x34(%ebp),%edx
  401df7:	8d 4d e4             	lea    -0x1c(%ebp),%ecx
  401dfa:	ff 55 e8             	call   *-0x18(%ebp)
  401dfd:	39 1d b8 a8 40 00    	cmp    %ebx,0x40a8b8
  401e03:	75 15                	jne    0x401e1a
  401e05:	53                   	push   %ebx
  401e06:	ff 75 f4             	push   -0xc(%ebp)
  401e09:	68 02 04 00 00       	push   $0x402
  401e0e:	ff 35 48 a4 40 00    	push   0x40a448
  401e14:	ff 15 18 81 40 00    	call   *0x408118
  401e1a:	8b 45 ec             	mov    -0x14(%ebp),%eax
  401e1d:	66 89 1c 45 4c a4 40 	mov    %bx,0x40a44c(,%eax,2)
  401e24:	00 
  401e25:	8b 45 f4             	mov    -0xc(%ebp),%eax
  401e28:	3b 85 08 ff ff ff    	cmp    -0xf8(%ebp),%eax
  401e2e:	75 33                	jne    0x401e63
  401e30:	e8 bf 05 00 00       	call   0x4023f4
  401e35:	e8 fd 07 00 00       	call   0x402637
  401e3a:	e8 89 09 00 00       	call   0x4027c8
  401e3f:	8b 0d bc a8 40 00    	mov    0x40a8bc,%ecx
  401e45:	e8 56 06 00 00       	call   0x4024a0
  401e4a:	39 1d b8 a8 40 00    	cmp    %ebx,0x40a8b8
  401e50:	75 11                	jne    0x401e63
  401e52:	68 34 87 40 00       	push   $0x408734
  401e57:	ff 35 ac a8 40 00    	push   0x40a8ac
  401e5d:	ff 15 04 81 40 00    	call   *0x408104
  401e63:	8d 55 e4             	lea    -0x1c(%ebp),%edx
  401e66:	8d 8d c0 fe ff ff    	lea    -0x140(%ebp),%ecx
  401e6c:	e8 68 0c 00 00       	call   0x402ad9
  401e71:	8b 55 80             	mov    -0x80(%ebp),%edx
  401e74:	8d 4d e4             	lea    -0x1c(%ebp),%ecx
  401e77:	ff 55 e8             	call   *-0x18(%ebp)
  401e7a:	8d 4d 90             	lea    -0x70(%ebp),%ecx
  401e7d:	e8 10 2e 00 00       	call   0x404c92
  401e82:	8b 75 e0             	mov    -0x20(%ebp),%esi
  401e85:	bf 04 01 00 00       	mov    $0x104,%edi
  401e8a:	3b f3                	cmp    %ebx,%esi
  401e8c:	74 07                	je     0x401e95
  401e8e:	c7 45 fc 0b 00 00 00 	movl   $0xb,-0x4(%ebp)
  401e95:	39 5d fc             	cmp    %ebx,-0x4(%ebp)
  401e98:	0f 85 89 00 00 00    	jne    0x401f27
  401e9e:	39 1d b8 a8 40 00    	cmp    %ebx,0x40a8b8
  401ea4:	75 7a                	jne    0x401f20
  401ea6:	83 7d d8 01          	cmpl   $0x1,-0x28(%ebp)
  401eaa:	7e 74                	jle    0x401f20
  401eac:	57                   	push   %edi
  401ead:	ff 35 5c 81 40 00    	push   0x40815c
  401eb3:	68 a4 86 40 00       	push   $0x4086a4
  401eb8:	ff 35 bc a8 40 00    	push   0x40a8bc
  401ebe:	ff 15 0c 81 40 00    	call   *0x40810c
  401ec4:	83 f8 06             	cmp    $0x6,%eax
  401ec7:	75 57                	jne    0x401f20
  401ec9:	8d 45 c8             	lea    -0x38(%ebp),%eax
  401ecc:	50                   	push   %eax
  401ecd:	6a 28                	push   $0x28
  401ecf:	ff 15 8c 80 40 00    	call   *0x40808c
  401ed5:	50                   	push   %eax
  401ed6:	ff 15 04 80 40 00    	call   *0x408004
  401edc:	85 c0                	test   %eax,%eax
  401ede:	74 40                	je     0x401f20
  401ee0:	8d 45 9c             	lea    -0x64(%ebp),%eax
  401ee3:	50                   	push   %eax
  401ee4:	68 7c 86 40 00       	push   $0x40867c
  401ee9:	53                   	push   %ebx
  401eea:	ff 15 08 80 40 00    	call   *0x408008
  401ef0:	8d 45 98             	lea    -0x68(%ebp),%eax
  401ef3:	c7 45 98 01 00 00 00 	movl   $0x1,-0x68(%ebp)
  401efa:	6a 02                	push   $0x2
  401efc:	5e                   	pop    %esi
  401efd:	53                   	push   %ebx
  401efe:	53                   	push   %ebx
  401eff:	53                   	push   %ebx
  401f00:	50                   	push   %eax
  401f01:	53                   	push   %ebx
  401f02:	89 75 a4             	mov    %esi,-0x5c(%ebp)
  401f05:	ff 75 c8             	push   -0x38(%ebp)
  401f08:	ff 15 0c 80 40 00    	call   *0x40800c
  401f0e:	ff 15 74 80 40 00    	call   *0x408074
  401f14:	85 c0                	test   %eax,%eax
  401f16:	75 08                	jne    0x401f20
  401f18:	53                   	push   %ebx
  401f19:	56                   	push   %esi
  401f1a:	ff 15 fc 80 40 00    	call   *0x4080fc
  401f20:	33 c0                	xor    %eax,%eax
  401f22:	e9 85 00 00 00       	jmp    0x401fac
  401f27:	39 1d b8 a8 40 00    	cmp    %ebx,0x40a8b8
  401f2d:	75 7a                	jne    0x401fa9
  401f2f:	3b f3                	cmp    %ebx,%esi
  401f31:	74 1e                	je     0x401f51
  401f33:	8d 95 f0 fb ff ff    	lea    -0x410(%ebp),%edx
  401f39:	8b ce                	mov    %esi,%ecx
  401f3b:	66 89 9d f0 fb ff ff 	mov    %bx,-0x410(%ebp)
  401f42:	e8 d4 0a 00 00       	call   0x402a1b
  401f47:	8d 95 f0 fb ff ff    	lea    -0x410(%ebp),%edx
  401f4d:	33 c9                	xor    %ecx,%ecx
  401f4f:	eb 53                	jmp    0x401fa4
  401f51:	8b 45 fc             	mov    -0x4(%ebp),%eax
  401f54:	83 f8 64             	cmp    $0x64,%eax
  401f57:	75 04                	jne    0x401f5d
  401f59:	6a 02                	push   $0x2
  401f5b:	eb 4e                	jmp    0x401fab
  401f5d:	83 f8 04             	cmp    $0x4,%eax
  401f60:	75 09                	jne    0x401f6b
  401f62:	c7 45 f0 54 86 40 00 	movl   $0x408654,-0x10(%ebp)
  401f69:	eb 28                	jmp    0x401f93
  401f6b:	83 f8 02             	cmp    $0x2,%eax
  401f6e:	75 09                	jne    0x401f79
  401f70:	c7 45 f0 34 86 40 00 	movl   $0x408634,-0x10(%ebp)
  401f77:	eb 1a                	jmp    0x401f93
  401f79:	83 f8 03             	cmp    $0x3,%eax
  401f7c:	75 09                	jne    0x401f87
  401f7e:	c7 45 f0 28 86 40 00 	movl   $0x408628,-0x10(%ebp)
  401f85:	eb 0c                	jmp    0x401f93
  401f87:	83 f8 01             	cmp    $0x1,%eax
  401f8a:	75 07                	jne    0x401f93
  401f8c:	c7 45 f0 1c 86 40 00 	movl   $0x40861c,-0x10(%ebp)
  401f93:	39 5d f0             	cmp    %ebx,-0x10(%ebp)
  401f96:	75 07                	jne    0x401f9f
  401f98:	c7 45 f0 14 86 40 00 	movl   $0x408614,-0x10(%ebp)
  401f9f:	8b 4d f0             	mov    -0x10(%ebp),%ecx
  401fa2:	33 d2                	xor    %edx,%edx
  401fa4:	e8 7c f3 ff ff       	call   0x401325
  401fa9:	6a 01                	push   $0x1
  401fab:	58                   	pop    %eax
  401fac:	5f                   	pop    %edi
  401fad:	5e                   	pop    %esi
  401fae:	5b                   	pop    %ebx
  401faf:	c9                   	leave  
  401fb0:	c3                   	ret    
  401fb1:	55                   	push   %ebp
  401fb2:	8b ec                	mov    %esp,%ebp
  401fb4:	81 ec e0 02 00 00    	sub    $0x2e0,%esp
  401fba:	a1 b0 a8 40 00       	mov    0x40a8b0,%eax
  401fbf:	53                   	push   %ebx
  401fc0:	33 db                	xor    %ebx,%ebx
  401fc2:	56                   	push   %esi
  401fc3:	3b c3                	cmp    %ebx,%eax
  401fc5:	57                   	push   %edi
  401fc6:	89 4d f8             	mov    %ecx,-0x8(%ebp)
  401fc9:	89 5d f0             	mov    %ebx,-0x10(%ebp)
  401fcc:	75 75                	jne    0x402043
  401fce:	8d 85 20 fd ff ff    	lea    -0x2e0(%ebp),%eax
  401fd4:	68 06 01 00 00       	push   $0x106
  401fd9:	50                   	push   %eax
  401fda:	ff 15 40 80 40 00    	call   *0x408040
  401fe0:	3b c3                	cmp    %ebx,%eax
  401fe2:	0f 84 f1 00 00 00    	je     0x4020d9
  401fe8:	3d 04 01 00 00       	cmp    $0x104,%eax
  401fed:	0f 87 e6 00 00 00    	ja     0x4020d9
  401ff3:	8d 85 20 fd ff ff    	lea    -0x2e0(%ebp),%eax
  401ff9:	50                   	push   %eax
  401ffa:	ff 15 90 80 40 00    	call   *0x408090
  402000:	66 83 bc 45 1e fd ff 	cmpw   $0x5c,-0x2e2(%ebp,%eax,2)
  402007:	ff 5c 
  402009:	74 0b                	je     0x402016
  40200b:	66 c7 84 45 20 fd ff 	movw   $0x5c,-0x2e0(%ebp,%eax,2)
  402012:	ff 5c 00 
  402015:	40                   	inc    %eax
  402016:	8d 84 45 20 fd ff ff 	lea    -0x2e0(%ebp,%eax,2),%eax
  40201d:	68 34 88 40 00       	push   $0x408834
  402022:	50                   	push   %eax
  402023:	ff 15 80 80 40 00    	call   *0x408080
  402029:	8d 85 20 fd ff ff    	lea    -0x2e0(%ebp),%eax
  40202f:	50                   	push   %eax
  402030:	ff 15 44 80 40 00    	call   *0x408044
  402036:	3b c3                	cmp    %ebx,%eax
  402038:	a3 b0 a8 40 00       	mov    %eax,0x40a8b0
  40203d:	0f 84 96 00 00 00    	je     0x4020d9
  402043:	8b 35 88 80 40 00    	mov    0x408088,%esi
  402049:	68 1c 88 40 00       	push   $0x40881c
  40204e:	50                   	push   %eax
  40204f:	ff d6                	call   *%esi
  402051:	8b f8                	mov    %eax,%edi
  402053:	68 08 88 40 00       	push   $0x408808
  402058:	ff 35 b0 a8 40 00    	push   0x40a8b0
  40205e:	ff d6                	call   *%esi
  402060:	89 45 fc             	mov    %eax,-0x4(%ebp)
  402063:	68 f8 87 40 00       	push   $0x4087f8
  402068:	ff 35 b0 a8 40 00    	push   0x40a8b0
  40206e:	ff d6                	call   *%esi
  402070:	3b fb                	cmp    %ebx,%edi
  402072:	89 45 f4             	mov    %eax,-0xc(%ebp)
  402075:	74 62                	je     0x4020d9
  402077:	39 5d fc             	cmp    %ebx,-0x4(%ebp)
  40207a:	74 5d                	je     0x4020d9
  40207c:	3b c3                	cmp    %ebx,%eax
  40207e:	74 59                	je     0x4020d9
  402080:	53                   	push   %ebx
  402081:	ff 75 f8             	push   -0x8(%ebp)
  402084:	ff d7                	call   *%edi
  402086:	8b f0                	mov    %eax,%esi
  402088:	3b f3                	cmp    %ebx,%esi
  40208a:	74 4d                	je     0x4020d9
  40208c:	56                   	push   %esi
  40208d:	ff 15 d4 80 40 00    	call   *0x4080d4
  402093:	8b f8                	mov    %eax,%edi
  402095:	59                   	pop    %ecx
  402096:	3b fb                	cmp    %ebx,%edi
  402098:	74 3f                	je     0x4020d9
  40209a:	57                   	push   %edi
  40209b:	56                   	push   %esi
  40209c:	53                   	push   %ebx
  40209d:	ff 75 f8             	push   -0x8(%ebp)
  4020a0:	ff 55 fc             	call   *-0x4(%ebp)
  4020a3:	85 c0                	test   %eax,%eax
  4020a5:	74 23                	je     0x4020ca
  4020a7:	8d 45 f8             	lea    -0x8(%ebp),%eax
  4020aa:	89 5d fc             	mov    %ebx,-0x4(%ebp)
  4020ad:	50                   	push   %eax
  4020ae:	8d 45 fc             	lea    -0x4(%ebp),%eax
  4020b1:	50                   	push   %eax
  4020b2:	68 f4 87 40 00       	push   $0x4087f4
  4020b7:	57                   	push   %edi
  4020b8:	89 5d f8             	mov    %ebx,-0x8(%ebp)
  4020bb:	ff 55 f4             	call   *-0xc(%ebp)
  4020be:	85 c0                	test   %eax,%eax
  4020c0:	74 08                	je     0x4020ca
  4020c2:	8b 45 fc             	mov    -0x4(%ebp),%eax
  4020c5:	8b 70 08             	mov    0x8(%eax),%esi
  4020c8:	eb 03                	jmp    0x4020cd
  4020ca:	8b 75 f0             	mov    -0x10(%ebp),%esi
  4020cd:	57                   	push   %edi
  4020ce:	ff 15 d8 80 40 00    	call   *0x4080d8
  4020d4:	59                   	pop    %ecx
  4020d5:	8b c6                	mov    %esi,%eax
  4020d7:	eb 02                	jmp    0x4020db
  4020d9:	33 c0                	xor    %eax,%eax
  4020db:	5f                   	pop    %edi
  4020dc:	5e                   	pop    %esi
  4020dd:	5b                   	pop    %ebx
  4020de:	c9                   	leave  
  4020df:	c3                   	ret    
  4020e0:	6a 00                	push   $0x0
  4020e2:	51                   	push   %ecx
  4020e3:	ff 15 3c 80 40 00    	call   *0x40803c
  4020e9:	85 c0                	test   %eax,%eax
  4020eb:	74 03                	je     0x4020f0
  4020ed:	33 c0                	xor    %eax,%eax
  4020ef:	c3                   	ret    
  4020f0:	ff 15 74 80 40 00    	call   *0x408074
  4020f6:	c3                   	ret    
  4020f7:	55                   	push   %ebp
  4020f8:	8b ec                	mov    %esp,%ebp
  4020fa:	81 ec 20 02 00 00    	sub    $0x220,%esp
  402100:	53                   	push   %ebx
  402101:	8b 1d 90 80 40 00    	mov    0x408090,%ebx
  402107:	56                   	push   %esi
  402108:	be 4c a4 40 00       	mov    $0x40a44c,%esi
  40210d:	57                   	push   %edi
  40210e:	56                   	push   %esi
  40210f:	ff d3                	call   *%ebx
  402111:	3d 04 01 00 00       	cmp    $0x104,%eax
  402116:	0f 87 71 01 00 00    	ja     0x40228d
  40211c:	8d 85 e0 fd ff ff    	lea    -0x220(%ebp),%eax
  402122:	56                   	push   %esi
  402123:	50                   	push   %eax
  402124:	ff 15 80 80 40 00    	call   *0x408080
  40212a:	66 8b 85 e0 fd ff ff 	mov    -0x220(%ebp),%ax
  402131:	66 3d 61 00          	cmp    $0x61,%ax
  402135:	72 06                	jb     0x40213d
  402137:	66 3d 7a 00          	cmp    $0x7a,%ax
  40213b:	76 0c                	jbe    0x402149
  40213d:	66 3d 41 00          	cmp    $0x41,%ax
  402141:	72 23                	jb     0x402166
  402143:	66 3d 5a 00          	cmp    $0x5a,%ax
  402147:	77 1d                	ja     0x402166
  402149:	66 83 bd e2 fd ff ff 	cmpw   $0x3a,-0x21e(%ebp)
  402150:	3a 
  402151:	75 13                	jne    0x402166
  402153:	66 83 bd e4 fd ff ff 	cmpw   $0x5c,-0x21c(%ebp)
  40215a:	5c 
  40215b:	75 09                	jne    0x402166
  40215d:	c7 45 fc 03 00 00 00 	movl   $0x3,-0x4(%ebp)
  402164:	eb 1e                	jmp    0x402184
  402166:	66 3d 5c 00          	cmp    $0x5c,%ax
  40216a:	0f 85 1d 01 00 00    	jne    0x40228d
  402170:	66 39 85 e2 fd ff ff 	cmp    %ax,-0x21e(%ebp)
  402177:	0f 85 10 01 00 00    	jne    0x40228d
  40217d:	c7 45 fc 02 00 00 00 	movl   $0x2,-0x4(%ebp)
  402184:	8d 85 e0 fd ff ff    	lea    -0x220(%ebp),%eax
  40218a:	50                   	push   %eax
  40218b:	ff 15 4c 80 40 00    	call   *0x40804c
  402191:	83 f8 ff             	cmp    $0xffffffff,%eax
  402194:	74 12                	je     0x4021a8
  402196:	24 10                	and    $0x10,%al
  402198:	f6 d8                	neg    %al
  40219a:	1b c0                	sbb    %eax,%eax
  40219c:	24 49                	and    $0x49,%al
  40219e:	05 b7 00 00 00       	add    $0xb7,%eax
  4021a3:	e9 e8 00 00 00       	jmp    0x402290
  4021a8:	8d 8d e0 fd ff ff    	lea    -0x220(%ebp),%ecx
  4021ae:	e8 2d ff ff ff       	call   0x4020e0
  4021b3:	8b f0                	mov    %eax,%esi
  4021b5:	85 f6                	test   %esi,%esi
  4021b7:	0f 84 cc 00 00 00    	je     0x402289
  4021bd:	81 fe b7 00 00 00    	cmp    $0xb7,%esi
  4021c3:	0f 84 c0 00 00 00    	je     0x402289
  4021c9:	8d 85 e0 fd ff ff    	lea    -0x220(%ebp),%eax
  4021cf:	50                   	push   %eax
  4021d0:	ff d3                	call   *%ebx
  4021d2:	8d 8d e0 fd ff ff    	lea    -0x220(%ebp),%ecx
  4021d8:	8b f8                	mov    %eax,%edi
  4021da:	e8 b6 00 00 00       	call   0x402295
  4021df:	85 c0                	test   %eax,%eax
  4021e1:	7d 07                	jge    0x4021ea
  4021e3:	8b c6                	mov    %esi,%eax
  4021e5:	e9 a6 00 00 00       	jmp    0x402290
  4021ea:	3b 45 fc             	cmp    -0x4(%ebp),%eax
  4021ed:	72 f4                	jb     0x4021e3
  4021ef:	8d 4f ff             	lea    -0x1(%edi),%ecx
  4021f2:	3b c1                	cmp    %ecx,%eax
  4021f4:	75 14                	jne    0x40220a
  4021f6:	83 ff 01             	cmp    $0x1,%edi
  4021f9:	0f 84 8a 00 00 00    	je     0x402289
  4021ff:	66 83 a4 45 e0 fd ff 	andw   $0x0,-0x220(%ebp,%eax,2)
  402206:	ff 00 
  402208:	8b f8                	mov    %eax,%edi
  40220a:	8d 8d e0 fd ff ff    	lea    -0x220(%ebp),%ecx
  402210:	e8 cb fe ff ff       	call   0x4020e0
  402215:	8b f0                	mov    %eax,%esi
  402217:	85 f6                	test   %esi,%esi
  402219:	74 46                	je     0x402261
  40221b:	81 fe b7 00 00 00    	cmp    $0xb7,%esi
  402221:	74 21                	je     0x402244
  402223:	8d 8d e0 fd ff ff    	lea    -0x220(%ebp),%ecx
  402229:	e8 67 00 00 00       	call   0x402295
  40222e:	85 c0                	test   %eax,%eax
  402230:	7c b1                	jl     0x4021e3
  402232:	74 af                	je     0x4021e3
  402234:	3b 45 fc             	cmp    -0x4(%ebp),%eax
  402237:	72 aa                	jb     0x4021e3
  402239:	66 83 a4 45 e0 fd ff 	andw   $0x0,-0x220(%ebp,%eax,2)
  402240:	ff 00 
  402242:	eb c6                	jmp    0x40220a
  402244:	8d 85 e0 fd ff ff    	lea    -0x220(%ebp),%eax
  40224a:	50                   	push   %eax
  40224b:	ff 15 4c 80 40 00    	call   *0x40804c
  402251:	83 f8 ff             	cmp    $0xffffffff,%eax
  402254:	74 0b                	je     0x402261
  402256:	a8 10                	test   $0x10,%al
  402258:	75 07                	jne    0x402261
  40225a:	b8 b7 00 00 00       	mov    $0xb7,%eax
  40225f:	eb 2f                	jmp    0x402290
  402261:	8d 85 e0 fd ff ff    	lea    -0x220(%ebp),%eax
  402267:	50                   	push   %eax
  402268:	ff d3                	call   *%ebx
  40226a:	3b c7                	cmp    %edi,%eax
  40226c:	73 1b                	jae    0x402289
  40226e:	8d 8d e0 fd ff ff    	lea    -0x220(%ebp),%ecx
  402274:	66 c7 84 45 e0 fd ff 	movw   $0x5c,-0x220(%ebp,%eax,2)
  40227b:	ff 5c 00 
  40227e:	e8 5d fe ff ff       	call   0x4020e0
  402283:	85 c0                	test   %eax,%eax
  402285:	75 09                	jne    0x402290
  402287:	eb d8                	jmp    0x402261
  402289:	33 c0                	xor    %eax,%eax
  40228b:	eb 03                	jmp    0x402290
  40228d:	6a 7b                	push   $0x7b
  40228f:	58                   	pop    %eax
  402290:	5f                   	pop    %edi
  402291:	5e                   	pop    %esi
  402292:	5b                   	pop    %ebx
  402293:	c9                   	leave  
  402294:	c3                   	ret    
  402295:	56                   	push   %esi
  402296:	83 c8 ff             	or     $0xffffffff,%eax
  402299:	33 f6                	xor    %esi,%esi
  40229b:	66 8b 11             	mov    (%ecx),%dx
  40229e:	66 85 d2             	test   %dx,%dx
  4022a1:	74 0d                	je     0x4022b0
  4022a3:	66 83 fa 5c          	cmp    $0x5c,%dx
  4022a7:	75 02                	jne    0x4022ab
  4022a9:	8b c6                	mov    %esi,%eax
  4022ab:	46                   	inc    %esi
  4022ac:	41                   	inc    %ecx
  4022ad:	41                   	inc    %ecx
  4022ae:	eb eb                	jmp    0x40229b
  4022b0:	5e                   	pop    %esi
  4022b1:	c3                   	ret    
  4022b2:	55                   	push   %ebp
  4022b3:	8b ec                	mov    %esp,%ebp
  4022b5:	b8 08 80 00 00       	mov    $0x8008,%eax
  4022ba:	e8 21 4f 00 00       	call   0x4071e0
  4022bf:	89 4d f8             	mov    %ecx,-0x8(%ebp)
  4022c2:	56                   	push   %esi
  4022c3:	57                   	push   %edi
  4022c4:	8b f2                	mov    %edx,%esi
  4022c6:	33 ff                	xor    %edi,%edi
  4022c8:	89 3e                	mov    %edi,(%esi)
  4022ca:	89 7e 04             	mov    %edi,0x4(%esi)
  4022cd:	8b 4d f8             	mov    -0x8(%ebp),%ecx
  4022d0:	b8 00 80 00 00       	mov    $0x8000,%eax
  4022d5:	2b c7                	sub    %edi,%eax
  4022d7:	8d 94 3d f8 7f ff ff 	lea    -0x8008(%ebp,%edi,1),%edx
  4022de:	89 45 fc             	mov    %eax,-0x4(%ebp)
  4022e1:	8d 45 fc             	lea    -0x4(%ebp),%eax
  4022e4:	50                   	push   %eax
  4022e5:	e8 cc 29 00 00       	call   0x404cb6
  4022ea:	85 c0                	test   %eax,%eax
  4022ec:	0f 85 a4 00 00 00    	jne    0x402396
  4022f2:	8b 45 fc             	mov    -0x4(%ebp),%eax
  4022f5:	03 c7                	add    %edi,%eax
  4022f7:	83 f8 20             	cmp    $0x20,%eax
  4022fa:	0f 82 96 00 00 00    	jb     0x402396
  402300:	75 08                	jne    0x40230a
  402302:	85 ff                	test   %edi,%edi
  402304:	0f 85 8c 00 00 00    	jne    0x402396
  40230a:	83 e8 20             	sub    $0x20,%eax
  40230d:	33 ff                	xor    %edi,%edi
  40230f:	89 45 fc             	mov    %eax,-0x4(%ebp)
  402312:	3b f8                	cmp    %eax,%edi
  402314:	77 4c                	ja     0x402362
  402316:	80 bc 3d f8 7f ff ff 	cmpb   $0x37,-0x8008(%ebp,%edi,1)
  40231d:	37 
  40231e:	74 05                	je     0x402325
  402320:	47                   	inc    %edi
  402321:	3b f8                	cmp    %eax,%edi
  402323:	76 f1                	jbe    0x402316
  402325:	3b f8                	cmp    %eax,%edi
  402327:	77 39                	ja     0x402362
  402329:	6a 06                	push   $0x6
  40232b:	8d 84 3d f8 7f ff ff 	lea    -0x8008(%ebp,%edi,1),%eax
  402332:	68 8c 8b 40 00       	push   $0x408b8c
  402337:	50                   	push   %eax
  402338:	e8 99 4e 00 00       	call   0x4071d6
  40233d:	83 c4 0c             	add    $0xc,%esp
  402340:	85 c0                	test   %eax,%eax
  402342:	75 18                	jne    0x40235c
  402344:	6a 14                	push   $0x14
  402346:	8d 8c 3d 04 80 ff ff 	lea    -0x7ffc(%ebp,%edi,1),%ecx
  40234d:	5a                   	pop    %edx
  40234e:	e8 16 4e 00 00       	call   0x407169
  402353:	3b 84 3d 00 80 ff ff 	cmp    -0x8000(%ebp,%edi,1),%eax
  40235a:	74 40                	je     0x40239c
  40235c:	8b 45 fc             	mov    -0x4(%ebp),%eax
  40235f:	47                   	inc    %edi
  402360:	eb b0                	jmp    0x402312
  402362:	01 06                	add    %eax,(%esi)
  402364:	6a 20                	push   $0x20
  402366:	5f                   	pop    %edi
  402367:	8d 84 05 f8 7f ff ff 	lea    -0x8008(%ebp,%eax,1),%eax
  40236e:	57                   	push   %edi
  40236f:	50                   	push   %eax
  402370:	83 56 04 00          	adcl   $0x0,0x4(%esi)
  402374:	8d 85 f8 7f ff ff    	lea    -0x8008(%ebp),%eax
  40237a:	50                   	push   %eax
  40237b:	ff 15 d0 80 40 00    	call   *0x4080d0
  402381:	83 c4 0c             	add    $0xc,%esp
  402384:	83 7e 04 00          	cmpl   $0x0,0x4(%esi)
  402388:	77 0c                	ja     0x402396
  40238a:	81 3e 00 00 40 00    	cmpl   $0x400000,(%esi)
  402390:	0f 86 37 ff ff ff    	jbe    0x4022cd
  402396:	33 c0                	xor    %eax,%eax
  402398:	5f                   	pop    %edi
  402399:	5e                   	pop    %esi
  40239a:	c9                   	leave  
  40239b:	c3                   	ret    
  40239c:	01 3e                	add    %edi,(%esi)
  40239e:	6a 01                	push   $0x1
  4023a0:	58                   	pop    %eax
  4023a1:	83 56 04 00          	adcl   $0x0,0x4(%esi)
  4023a5:	eb f1                	jmp    0x402398
  4023a7:	53                   	push   %ebx
  4023a8:	8b d9                	mov    %ecx,%ebx
  4023aa:	56                   	push   %esi
  4023ab:	57                   	push   %edi
  4023ac:	8b c3                	mov    %ebx,%eax
  4023ae:	8b fa                	mov    %edx,%edi
  4023b0:	6a 01                	push   $0x1
  4023b2:	c1 e8 04             	shr    $0x4,%eax
  4023b5:	5e                   	pop    %esi
  4023b6:	33 d2                	xor    %edx,%edx
  4023b8:	8b c8                	mov    %eax,%ecx
  4023ba:	0b ca                	or     %edx,%ecx
  4023bc:	74 0b                	je     0x4023c9
  4023be:	6a 04                	push   $0x4
  4023c0:	46                   	inc    %esi
  4023c1:	59                   	pop    %ecx
  4023c2:	e8 49 4e 00 00       	call   0x407210
  4023c7:	eb ef                	jmp    0x4023b8
  4023c9:	66 83 24 77 00       	andw   $0x0,(%edi,%esi,2)
  4023ce:	8d 04 77             	lea    (%edi,%esi,2),%eax
  4023d1:	8b cb                	mov    %ebx,%ecx
  4023d3:	83 e1 0f             	and    $0xf,%ecx
  4023d6:	c1 eb 04             	shr    $0x4,%ebx
  4023d9:	83 f9 0a             	cmp    $0xa,%ecx
  4023dc:	73 05                	jae    0x4023e3
  4023de:	83 c1 30             	add    $0x30,%ecx
  4023e1:	eb 03                	jmp    0x4023e6
  4023e3:	83 c1 37             	add    $0x37,%ecx
  4023e6:	4e                   	dec    %esi
  4023e7:	48                   	dec    %eax
  4023e8:	48                   	dec    %eax
  4023e9:	85 f6                	test   %esi,%esi
  4023eb:	66 89 08             	mov    %cx,(%eax)
  4023ee:	75 e1                	jne    0x4023d1
  4023f0:	5f                   	pop    %edi
  4023f1:	5e                   	pop    %esi
  4023f2:	5b                   	pop    %ebx
  4023f3:	c3                   	ret    
  4023f4:	b9 01 00 00 80       	mov    $0x80000001,%ecx
  4023f9:	e8 0a 00 00 00       	call   0x402408
  4023fe:	b9 02 00 00 80       	mov    $0x80000002,%ecx
  402403:	e9 00 00 00 00       	jmp    0x402408
  402408:	55                   	push   %ebp
  402409:	8b ec                	mov    %esp,%ebp
  40240b:	51                   	push   %ecx
  40240c:	8b 15 54 81 40 00    	mov    0x408154,%edx
  402412:	83 65 fc 00          	andl   $0x0,-0x4(%ebp)
  402416:	8d 45 fc             	lea    -0x4(%ebp),%eax
  402419:	57                   	push   %edi
  40241a:	50                   	push   %eax
  40241b:	e8 65 00 00 00       	call   0x402485
  402420:	8b f8                	mov    %eax,%edi
  402422:	85 ff                	test   %edi,%edi
  402424:	75 30                	jne    0x402456
  402426:	8b 15 64 81 40 00    	mov    0x408164,%edx
  40242c:	8b 4d fc             	mov    -0x4(%ebp),%ecx
  40242f:	56                   	push   %esi
  402430:	be 4c a4 40 00       	mov    $0x40a44c,%esi
  402435:	56                   	push   %esi
  402436:	e8 20 00 00 00       	call   0x40245b
  40243b:	8b 15 60 81 40 00    	mov    0x408160,%edx
  402441:	8b 4d fc             	mov    -0x4(%ebp),%ecx
  402444:	56                   	push   %esi
  402445:	8b f8                	mov    %eax,%edi
  402447:	e8 0f 00 00 00       	call   0x40245b
  40244c:	ff 75 fc             	push   -0x4(%ebp)
  40244f:	ff 15 18 80 40 00    	call   *0x408018
  402455:	5e                   	pop    %esi
  402456:	8b c7                	mov    %edi,%eax
  402458:	5f                   	pop    %edi
  402459:	c9                   	leave  
  40245a:	c3                   	ret    
  40245b:	56                   	push   %esi
  40245c:	57                   	push   %edi
  40245d:	ff 74 24 0c          	push   0xc(%esp)
  402461:	8b f2                	mov    %edx,%esi
  402463:	8b f9                	mov    %ecx,%edi
  402465:	ff 15 90 80 40 00    	call   *0x408090
  40246b:	8d 44 00 02          	lea    0x2(%eax,%eax,1),%eax
  40246f:	50                   	push   %eax
  402470:	ff 74 24 10          	push   0x10(%esp)
  402474:	6a 01                	push   $0x1
  402476:	6a 00                	push   $0x0
  402478:	56                   	push   %esi
  402479:	57                   	push   %edi
  40247a:	ff 15 00 80 40 00    	call   *0x408000
  402480:	5f                   	pop    %edi
  402481:	5e                   	pop    %esi
  402482:	c2 04 00             	ret    $0x4
  402485:	33 c0                	xor    %eax,%eax
  402487:	50                   	push   %eax
  402488:	ff 74 24 08          	push   0x8(%esp)
  40248c:	50                   	push   %eax
  40248d:	68 3f 01 0f 00       	push   $0xf013f
  402492:	50                   	push   %eax
  402493:	50                   	push   %eax
  402494:	50                   	push   %eax
  402495:	52                   	push   %edx
  402496:	51                   	push   %ecx
  402497:	ff 15 1c 80 40 00    	call   *0x40801c
  40249d:	c2 04 00             	ret    $0x4
  4024a0:	55                   	push   %ebp
  4024a1:	8b ec                	mov    %esp,%ebp
  4024a3:	81 ec bc 04 00 00    	sub    $0x4bc,%esp
  4024a9:	53                   	push   %ebx
  4024aa:	33 db                	xor    %ebx,%ebx
  4024ac:	56                   	push   %esi
  4024ad:	57                   	push   %edi
  4024ae:	89 4d f4             	mov    %ecx,-0xc(%ebp)
  4024b1:	89 5d fc             	mov    %ebx,-0x4(%ebp)
  4024b4:	8d 85 9c fd ff ff    	lea    -0x264(%ebp),%eax
  4024ba:	c7 45 f8 01 00 00 00 	movl   $0x1,-0x8(%ebp)
  4024c1:	50                   	push   %eax
  4024c2:	8b 45 fc             	mov    -0x4(%ebp),%eax
  4024c5:	48                   	dec    %eax
  4024c6:	53                   	push   %ebx
  4024c7:	f7 d8                	neg    %eax
  4024c9:	1b c0                	sbb    %eax,%eax
  4024cb:	53                   	push   %ebx
  4024cc:	24 eb                	and    $0xeb,%al
  4024ce:	66 89 9d 9c fd ff ff 	mov    %bx,-0x264(%ebp)
  4024d5:	83 c0 17             	add    $0x17,%eax
  4024d8:	50                   	push   %eax
  4024d9:	ff 75 f4             	push   -0xc(%ebp)
  4024dc:	ff 15 e8 80 40 00    	call   *0x4080e8
  4024e2:	85 c0                	test   %eax,%eax
  4024e4:	0f 85 c9 00 00 00    	jne    0x4025b3
  4024ea:	8d 8d 9c fd ff ff    	lea    -0x264(%ebp),%ecx
  4024f0:	e8 53 ef ff ff       	call   0x401448
  4024f5:	8b 15 50 81 40 00    	mov    0x408150,%edx
  4024fb:	8d 8d 9c fd ff ff    	lea    -0x264(%ebp),%ecx
  402501:	e8 a9 ee ff ff       	call   0x4013af
  402506:	39 5d fc             	cmp    %ebx,-0x4(%ebp)
  402509:	74 0b                	je     0x402516
  40250b:	8d 8d 9c fd ff ff    	lea    -0x264(%ebp),%ecx
  402511:	e8 ca fb ff ff       	call   0x4020e0
  402516:	8d 8d 9c fd ff ff    	lea    -0x264(%ebp),%ecx
  40251c:	e8 27 ef ff ff       	call   0x401448
  402521:	8d 85 9c fd ff ff    	lea    -0x264(%ebp),%eax
  402527:	50                   	push   %eax
  402528:	ff 15 90 80 40 00    	call   *0x408090
  40252e:	33 ff                	xor    %edi,%edi
  402530:	8d b4 45 9c fd ff ff 	lea    -0x264(%ebp,%eax,2),%esi
  402537:	3b fb                	cmp    %ebx,%edi
  402539:	ba 74 88 40 00       	mov    $0x408874,%edx
  40253e:	74 05                	je     0x402545
  402540:	ba 64 88 40 00       	mov    $0x408864,%edx
  402545:	8b ce                	mov    %esi,%ecx
  402547:	e8 c6 ed ff ff       	call   0x401312
  40254c:	8d 85 44 fb ff ff    	lea    -0x4bc(%ebp),%eax
  402552:	68 4c a4 40 00       	push   $0x40a44c
  402557:	50                   	push   %eax
  402558:	ff 15 80 80 40 00    	call   *0x408080
  40255e:	3b fb                	cmp    %ebx,%edi
  402560:	ba 58 88 40 00       	mov    $0x408858,%edx
  402565:	74 05                	je     0x40256c
  402567:	ba 4c 88 40 00       	mov    $0x40884c,%edx
  40256c:	8d 8d 44 fb ff ff    	lea    -0x4bc(%ebp),%ecx
  402572:	e8 38 ee ff ff       	call   0x4013af
  402577:	39 5d fc             	cmp    %ebx,-0x4(%ebp)
  40257a:	75 0f                	jne    0x40258b
  40257c:	8d 85 9c fd ff ff    	lea    -0x264(%ebp),%eax
  402582:	50                   	push   %eax
  402583:	ff 15 38 80 40 00    	call   *0x408038
  402589:	eb 18                	jmp    0x4025a3
  40258b:	8d 95 44 fb ff ff    	lea    -0x4bc(%ebp),%edx
  402591:	8d 8d 9c fd ff ff    	lea    -0x264(%ebp),%ecx
  402597:	e8 29 00 00 00       	call   0x4025c5
  40259c:	85 c0                	test   %eax,%eax
  40259e:	74 03                	je     0x4025a3
  4025a0:	89 5d f8             	mov    %ebx,-0x8(%ebp)
  4025a3:	47                   	inc    %edi
  4025a4:	83 ff 02             	cmp    $0x2,%edi
  4025a7:	72 8e                	jb     0x402537
  4025a9:	39 5d fc             	cmp    %ebx,-0x4(%ebp)
  4025ac:	74 05                	je     0x4025b3
  4025ae:	39 5d f8             	cmp    %ebx,-0x8(%ebp)
  4025b1:	75 0d                	jne    0x4025c0
  4025b3:	ff 45 fc             	incl   -0x4(%ebp)
  4025b6:	83 7d fc 03          	cmpl   $0x3,-0x4(%ebp)
  4025ba:	0f 82 f4 fe ff ff    	jb     0x4024b4
  4025c0:	5f                   	pop    %edi
  4025c1:	5e                   	pop    %esi
  4025c2:	5b                   	pop    %ebx
  4025c3:	c9                   	leave  
  4025c4:	c3                   	ret    
  4025c5:	55                   	push   %ebp
  4025c6:	8b ec                	mov    %esp,%ebp
  4025c8:	51                   	push   %ecx
  4025c9:	51                   	push   %ecx
  4025ca:	53                   	push   %ebx
  4025cb:	56                   	push   %esi
  4025cc:	8d 45 fc             	lea    -0x4(%ebp),%eax
  4025cf:	57                   	push   %edi
  4025d0:	50                   	push   %eax
  4025d1:	68 08 8c 40 00       	push   $0x408c08
  4025d6:	6a 01                	push   $0x1
  4025d8:	6a 00                	push   $0x0
  4025da:	8b fa                	mov    %edx,%edi
  4025dc:	8b d9                	mov    %ecx,%ebx
  4025de:	68 18 8c 40 00       	push   $0x408c18
  4025e3:	ff 15 40 81 40 00    	call   *0x408140
  4025e9:	8b f0                	mov    %eax,%esi
  4025eb:	85 f6                	test   %esi,%esi
  4025ed:	7c 41                	jl     0x402630
  4025ef:	8b 45 fc             	mov    -0x4(%ebp),%eax
  4025f2:	57                   	push   %edi
  4025f3:	50                   	push   %eax
  4025f4:	8b 08                	mov    (%eax),%ecx
  4025f6:	ff 51 50             	call   *0x50(%ecx)
  4025f9:	8b 45 fc             	mov    -0x4(%ebp),%eax
  4025fc:	8d 55 f8             	lea    -0x8(%ebp),%edx
  4025ff:	52                   	push   %edx
  402600:	68 28 8c 40 00       	push   $0x408c28
  402605:	8b 08                	mov    (%eax),%ecx
  402607:	50                   	push   %eax
  402608:	ff 11                	call   *(%ecx)
  40260a:	8b f0                	mov    %eax,%esi
  40260c:	85 f6                	test   %esi,%esi
  40260e:	7c 17                	jl     0x402627
  402610:	8b 45 f8             	mov    -0x8(%ebp),%eax
  402613:	6a 01                	push   $0x1
  402615:	53                   	push   %ebx
  402616:	50                   	push   %eax
  402617:	8b 08                	mov    (%eax),%ecx
  402619:	ff 51 18             	call   *0x18(%ecx)
  40261c:	8b f0                	mov    %eax,%esi
  40261e:	8b 45 f8             	mov    -0x8(%ebp),%eax
  402621:	50                   	push   %eax
  402622:	8b 08                	mov    (%eax),%ecx
  402624:	ff 51 08             	call   *0x8(%ecx)
  402627:	8b 45 fc             	mov    -0x4(%ebp),%eax
  40262a:	50                   	push   %eax
  40262b:	8b 08                	mov    (%eax),%ecx
  40262d:	ff 51 08             	call   *0x8(%ecx)
  402630:	8b c6                	mov    %esi,%eax
  402632:	5f                   	pop    %edi
  402633:	5e                   	pop    %esi
  402634:	5b                   	pop    %ebx
  402635:	c9                   	leave  
  402636:	c3                   	ret    
  402637:	55                   	push   %ebp
  402638:	8b ec                	mov    %esp,%ebp
  40263a:	81 ec 5c 02 00 00    	sub    $0x25c,%esp
  402640:	8b 15 68 81 40 00    	mov    0x408168,%edx
  402646:	53                   	push   %ebx
  402647:	56                   	push   %esi
  402648:	57                   	push   %edi
  402649:	ff 35 74 81 40 00    	push   0x408174
  40264f:	be 00 00 00 80       	mov    $0x80000000,%esi
  402654:	8b ce                	mov    %esi,%ecx
  402656:	6a 00                	push   $0x0
  402658:	e8 33 01 00 00       	call   0x402790
  40265d:	8b 15 6c 81 40 00    	mov    0x40816c,%edx
  402663:	8d 45 fc             	lea    -0x4(%ebp),%eax
  402666:	50                   	push   %eax
  402667:	8b ce                	mov    %esi,%ecx
  402669:	e8 07 01 00 00       	call   0x402775
  40266e:	8b 3d 80 80 40 00    	mov    0x408080,%edi
  402674:	8b 1d 18 80 40 00    	mov    0x408018,%ebx
  40267a:	85 c0                	test   %eax,%eax
  40267c:	75 46                	jne    0x4026c4
  40267e:	8d 85 a4 fd ff ff    	lea    -0x25c(%ebp),%eax
  402684:	68 4c a4 40 00       	push   $0x40a44c
  402689:	50                   	push   %eax
  40268a:	ff d7                	call   *%edi
  40268c:	ba ac 87 40 00       	mov    $0x4087ac,%edx
  402691:	8d 8d a4 fd ff ff    	lea    -0x25c(%ebp),%ecx
  402697:	e8 13 ed ff ff       	call   0x4013af
  40269c:	8b 4d fc             	mov    -0x4(%ebp),%ecx
  40269f:	8d 85 a4 fd ff ff    	lea    -0x25c(%ebp),%eax
  4026a5:	50                   	push   %eax
  4026a6:	33 d2                	xor    %edx,%edx
  4026a8:	e8 ae fd ff ff       	call   0x40245b
  4026ad:	8b 4d fc             	mov    -0x4(%ebp),%ecx
  4026b0:	ba a0 88 40 00       	mov    $0x4088a0,%edx
  4026b5:	68 8c 88 40 00       	push   $0x40888c
  4026ba:	e8 9c fd ff ff       	call   0x40245b
  4026bf:	ff 75 fc             	push   -0x4(%ebp)
  4026c2:	ff d3                	call   *%ebx
  4026c4:	ff 35 74 81 40 00    	push   0x408174
  4026ca:	8b 15 68 81 40 00    	mov    0x408168,%edx
  4026d0:	8b ce                	mov    %esi,%ecx
  4026d2:	6a 00                	push   $0x0
  4026d4:	e8 64 00 00 00       	call   0x40273d
  4026d9:	8b 15 6c 81 40 00    	mov    0x40816c,%edx
  4026df:	83 65 fc 00          	andl   $0x0,-0x4(%ebp)
  4026e3:	8d 45 fc             	lea    -0x4(%ebp),%eax
  4026e6:	8b ce                	mov    %esi,%ecx
  4026e8:	50                   	push   %eax
  4026e9:	e8 97 fd ff ff       	call   0x402485
  4026ee:	85 c0                	test   %eax,%eax
  4026f0:	75 46                	jne    0x402738
  4026f2:	8d 85 a4 fd ff ff    	lea    -0x25c(%ebp),%eax
  4026f8:	68 4c a4 40 00       	push   $0x40a44c
  4026fd:	50                   	push   %eax
  4026fe:	ff d7                	call   *%edi
  402700:	ba b8 87 40 00       	mov    $0x4087b8,%edx
  402705:	8d 8d a4 fd ff ff    	lea    -0x25c(%ebp),%ecx
  40270b:	e8 9f ec ff ff       	call   0x4013af
  402710:	8b 4d fc             	mov    -0x4(%ebp),%ecx
  402713:	8d 85 a4 fd ff ff    	lea    -0x25c(%ebp),%eax
  402719:	50                   	push   %eax
  40271a:	33 d2                	xor    %edx,%edx
  40271c:	e8 3a fd ff ff       	call   0x40245b
  402721:	8b 4d fc             	mov    -0x4(%ebp),%ecx
  402724:	ba a0 88 40 00       	mov    $0x4088a0,%edx
  402729:	68 8c 88 40 00       	push   $0x40888c
  40272e:	e8 28 fd ff ff       	call   0x40245b
  402733:	ff 75 fc             	push   -0x4(%ebp)
  402736:	ff d3                	call   *%ebx
  402738:	5f                   	pop    %edi
  402739:	5e                   	pop    %esi
  40273a:	5b                   	pop    %ebx
  40273b:	c9                   	leave  
  40273c:	c3                   	ret    
  40273d:	55                   	push   %ebp
  40273e:	8b ec                	mov    %esp,%ebp
  402740:	51                   	push   %ecx
  402741:	83 65 fc 00          	andl   $0x0,-0x4(%ebp)
  402745:	8d 45 fc             	lea    -0x4(%ebp),%eax
  402748:	56                   	push   %esi
  402749:	50                   	push   %eax
  40274a:	e8 36 fd ff ff       	call   0x402485
  40274f:	8b f0                	mov    %eax,%esi
  402751:	85 f6                	test   %esi,%esi
  402753:	75 19                	jne    0x40276e
  402755:	ff 75 0c             	push   0xc(%ebp)
  402758:	8b 55 08             	mov    0x8(%ebp),%edx
  40275b:	8b 4d fc             	mov    -0x4(%ebp),%ecx
  40275e:	e8 f8 fc ff ff       	call   0x40245b
  402763:	8b f0                	mov    %eax,%esi
  402765:	ff 75 fc             	push   -0x4(%ebp)
  402768:	ff 15 18 80 40 00    	call   *0x408018
  40276e:	8b c6                	mov    %esi,%eax
  402770:	5e                   	pop    %esi
  402771:	c9                   	leave  
  402772:	c2 08 00             	ret    $0x8
  402775:	33 c0                	xor    %eax,%eax
  402777:	50                   	push   %eax
  402778:	ff 74 24 08          	push   0x8(%esp)
  40277c:	50                   	push   %eax
  40277d:	68 3f 00 0f 00       	push   $0xf003f
  402782:	50                   	push   %eax
  402783:	50                   	push   %eax
  402784:	50                   	push   %eax
  402785:	52                   	push   %edx
  402786:	51                   	push   %ecx
  402787:	ff 15 1c 80 40 00    	call   *0x40801c
  40278d:	c2 04 00             	ret    $0x4
  402790:	55                   	push   %ebp
  402791:	8b ec                	mov    %esp,%ebp
  402793:	51                   	push   %ecx
  402794:	83 65 fc 00          	andl   $0x0,-0x4(%ebp)
  402798:	8d 45 fc             	lea    -0x4(%ebp),%eax
  40279b:	56                   	push   %esi
  40279c:	50                   	push   %eax
  40279d:	e8 d3 ff ff ff       	call   0x402775
  4027a2:	8b f0                	mov    %eax,%esi
  4027a4:	85 f6                	test   %esi,%esi
  4027a6:	75 19                	jne    0x4027c1
  4027a8:	ff 75 0c             	push   0xc(%ebp)
  4027ab:	8b 55 08             	mov    0x8(%ebp),%edx
  4027ae:	8b 4d fc             	mov    -0x4(%ebp),%ecx
  4027b1:	e8 a5 fc ff ff       	call   0x40245b
  4027b6:	8b f0                	mov    %eax,%esi
  4027b8:	ff 75 fc             	push   -0x4(%ebp)
  4027bb:	ff 15 18 80 40 00    	call   *0x408018
  4027c1:	8b c6                	mov    %esi,%eax
  4027c3:	5e                   	pop    %esi
  4027c4:	c9                   	leave  
  4027c5:	c2 08 00             	ret    $0x8
  4027c8:	55                   	push   %ebp
  4027c9:	8b ec                	mov    %esp,%ebp
  4027cb:	81 ec 5c 02 00 00    	sub    $0x25c,%esp
  4027d1:	53                   	push   %ebx
  4027d2:	56                   	push   %esi
  4027d3:	57                   	push   %edi
  4027d4:	bb 78 81 40 00       	mov    $0x408178,%ebx
  4027d9:	be 3c 8b 40 00       	mov    $0x408b3c,%esi
  4027de:	bf 00 00 00 80       	mov    $0x80000000,%edi
  4027e3:	8b 13                	mov    (%ebx),%edx
  4027e5:	8d 8d a4 fd ff ff    	lea    -0x25c(%ebp),%ecx
  4027eb:	e8 22 eb ff ff       	call   0x401312
  4027f0:	ba 34 8b 40 00       	mov    $0x408b34,%edx
  4027f5:	8d 8d a4 fd ff ff    	lea    -0x25c(%ebp),%ecx
  4027fb:	e8 af eb ff ff       	call   0x4013af
  402800:	8d 95 a4 fd ff ff    	lea    -0x25c(%ebp),%edx
  402806:	8b cf                	mov    %edi,%ecx
  402808:	56                   	push   %esi
  402809:	6a 00                	push   $0x0
  40280b:	e8 80 ff ff ff       	call   0x402790
  402810:	8d 95 a4 fd ff ff    	lea    -0x25c(%ebp),%edx
  402816:	8b cf                	mov    %edi,%ecx
  402818:	56                   	push   %esi
  402819:	6a 00                	push   $0x0
  40281b:	e8 1d ff ff ff       	call   0x40273d
  402820:	83 c3 04             	add    $0x4,%ebx
  402823:	81 fb 8c 81 40 00    	cmp    $0x40818c,%ebx
  402829:	72 b8                	jb     0x4027e3
  40282b:	ff 35 74 81 40 00    	push   0x408174
  402831:	8b 15 70 81 40 00    	mov    0x408170,%edx
  402837:	bf 02 00 00 80       	mov    $0x80000002,%edi
  40283c:	56                   	push   %esi
  40283d:	8b cf                	mov    %edi,%ecx
  40283f:	e8 4c ff ff ff       	call   0x402790
  402844:	8b 15 70 81 40 00    	mov    0x408170,%edx
  40284a:	8b cf                	mov    %edi,%ecx
  40284c:	ff 35 74 81 40 00    	push   0x408174
  402852:	56                   	push   %esi
  402853:	e8 e5 fe ff ff       	call   0x40273d
  402858:	8b 1d 80 80 40 00    	mov    0x408080,%ebx
  40285e:	be 4c a4 40 00       	mov    $0x40a44c,%esi
  402863:	8d 85 a4 fd ff ff    	lea    -0x25c(%ebp),%eax
  402869:	56                   	push   %esi
  40286a:	50                   	push   %eax
  40286b:	ff d3                	call   *%ebx
  40286d:	ba 58 88 40 00       	mov    $0x408858,%edx
  402872:	8d 8d a4 fd ff ff    	lea    -0x25c(%ebp),%ecx
  402878:	e8 32 eb ff ff       	call   0x4013af
  40287d:	83 65 fc 00          	andl   $0x0,-0x4(%ebp)
  402881:	8d 45 fc             	lea    -0x4(%ebp),%eax
  402884:	50                   	push   %eax
  402885:	ba b8 8a 40 00       	mov    $0x408ab8,%edx
  40288a:	8b cf                	mov    %edi,%ecx
  40288c:	e8 f4 fb ff ff       	call   0x402485
  402891:	85 c0                	test   %eax,%eax
  402893:	75 28                	jne    0x4028bd
  402895:	8b 4d fc             	mov    -0x4(%ebp),%ecx
  402898:	8d 85 a4 fd ff ff    	lea    -0x25c(%ebp),%eax
  40289e:	50                   	push   %eax
  40289f:	33 d2                	xor    %edx,%edx
  4028a1:	e8 b5 fb ff ff       	call   0x40245b
  4028a6:	8b 4d fc             	mov    -0x4(%ebp),%ecx
  4028a9:	ba d4 83 40 00       	mov    $0x4083d4,%edx
  4028ae:	56                   	push   %esi
  4028af:	e8 a7 fb ff ff       	call   0x40245b
  4028b4:	ff 75 fc             	push   -0x4(%ebp)
  4028b7:	ff 15 18 80 40 00    	call   *0x408018
  4028bd:	83 65 fc 00          	andl   $0x0,-0x4(%ebp)
  4028c1:	8d 45 fc             	lea    -0x4(%ebp),%eax
  4028c4:	50                   	push   %eax
  4028c5:	ba 44 8a 40 00       	mov    $0x408a44,%edx
  4028ca:	8b cf                	mov    %edi,%ecx
  4028cc:	e8 b4 fb ff ff       	call   0x402485
  4028d1:	85 c0                	test   %eax,%eax
  4028d3:	0f 85 0f 01 00 00    	jne    0x4029e8
  4028d9:	ff 35 58 81 40 00    	push   0x408158
  4028df:	8b 4d fc             	mov    -0x4(%ebp),%ecx
  4028e2:	ba 2c 8a 40 00       	mov    $0x408a2c,%edx
  4028e7:	e8 6f fb ff ff       	call   0x40245b
  4028ec:	8b 4d fc             	mov    -0x4(%ebp),%ecx
  4028ef:	ba 0c 8a 40 00       	mov    $0x408a0c,%edx
  4028f4:	68 00 8a 40 00       	push   $0x408a00
  4028f9:	e8 5d fb ff ff       	call   0x40245b
  4028fe:	8b 4d fc             	mov    -0x4(%ebp),%ecx
  402901:	8d 85 a4 fd ff ff    	lea    -0x25c(%ebp),%eax
  402907:	50                   	push   %eax
  402908:	ba e8 89 40 00       	mov    $0x4089e8,%edx
  40290d:	e8 49 fb ff ff       	call   0x40245b
  402912:	8b 4d fc             	mov    -0x4(%ebp),%ecx
  402915:	ba c8 89 40 00       	mov    $0x4089c8,%edx
  40291a:	56                   	push   %esi
  40291b:	e8 3b fb ff ff       	call   0x40245b
  402920:	8d 85 a6 fd ff ff    	lea    -0x25a(%ebp),%eax
  402926:	66 c7 85 a4 fd ff ff 	movw   $0x22,-0x25c(%ebp)
  40292d:	22 00 
  40292f:	56                   	push   %esi
  402930:	50                   	push   %eax
  402931:	ff d3                	call   *%ebx
  402933:	ba b8 89 40 00       	mov    $0x4089b8,%edx
  402938:	8d 8d a4 fd ff ff    	lea    -0x25c(%ebp),%ecx
  40293e:	e8 6c ea ff ff       	call   0x4013af
  402943:	8b 4d fc             	mov    -0x4(%ebp),%ecx
  402946:	8d 85 a4 fd ff ff    	lea    -0x25c(%ebp),%eax
  40294c:	50                   	push   %eax
  40294d:	ba 98 89 40 00       	mov    $0x408998,%edx
  402952:	e8 04 fb ff ff       	call   0x40245b
  402957:	ba 94 89 40 00       	mov    $0x408994,%edx
  40295c:	8d 8d a4 fd ff ff    	lea    -0x25c(%ebp),%ecx
  402962:	e8 48 ea ff ff       	call   0x4013af
  402967:	8b 4d fc             	mov    -0x4(%ebp),%ecx
  40296a:	8d 85 a4 fd ff ff    	lea    -0x25c(%ebp),%eax
  402970:	50                   	push   %eax
  402971:	ba 68 89 40 00       	mov    $0x408968,%edx
  402976:	e8 e0 fa ff ff       	call   0x40245b
  40297b:	8b 4d fc             	mov    -0x4(%ebp),%ecx
  40297e:	ba 54 89 40 00       	mov    $0x408954,%edx
  402983:	6a 01                	push   $0x1
  402985:	e8 63 00 00 00       	call   0x4029ed
  40298a:	8b 4d fc             	mov    -0x4(%ebp),%ecx
  40298d:	ba 40 89 40 00       	mov    $0x408940,%edx
  402992:	6a 01                	push   $0x1
  402994:	e8 54 00 00 00       	call   0x4029ed
  402999:	a1 c0 a8 40 00       	mov    0x40a8c0,%eax
  40299e:	8b 4d fc             	mov    -0x4(%ebp),%ecx
  4029a1:	c1 e8 0a             	shr    $0xa,%eax
  4029a4:	50                   	push   %eax
  4029a5:	ba 24 89 40 00       	mov    $0x408924,%edx
  4029aa:	e8 3e 00 00 00       	call   0x4029ed
  4029af:	8b 4d fc             	mov    -0x4(%ebp),%ecx
  4029b2:	ba 08 89 40 00       	mov    $0x408908,%edx
  4029b7:	6a 18                	push   $0x18
  4029b9:	e8 2f 00 00 00       	call   0x4029ed
  4029be:	8b 4d fc             	mov    -0x4(%ebp),%ecx
  4029c1:	ba ec 88 40 00       	mov    $0x4088ec,%edx
  4029c6:	6a 05                	push   $0x5
  4029c8:	e8 20 00 00 00       	call   0x4029ed
  4029cd:	8b 4d fc             	mov    -0x4(%ebp),%ecx
  4029d0:	ba d8 88 40 00       	mov    $0x4088d8,%edx
  4029d5:	68 c0 88 40 00       	push   $0x4088c0
  4029da:	e8 7c fa ff ff       	call   0x40245b
  4029df:	ff 75 fc             	push   -0x4(%ebp)
  4029e2:	ff 15 18 80 40 00    	call   *0x408018
  4029e8:	5f                   	pop    %edi
  4029e9:	5e                   	pop    %esi
  4029ea:	5b                   	pop    %ebx
  4029eb:	c9                   	leave  
  4029ec:	c3                   	ret    
  4029ed:	8d 44 24 04          	lea    0x4(%esp),%eax
  4029f1:	6a 04                	push   $0x4
  4029f3:	50                   	push   %eax
  4029f4:	6a 04                	push   $0x4
  4029f6:	6a 00                	push   $0x0
  4029f8:	52                   	push   %edx
  4029f9:	51                   	push   %ecx
  4029fa:	ff 15 00 80 40 00    	call   *0x408000
  402a00:	c2 04 00             	ret    $0x4
  402a03:	8b d1                	mov    %ecx,%edx
  402a05:	66 8b 02             	mov    (%edx),%ax
  402a08:	42                   	inc    %edx
  402a09:	42                   	inc    %edx
  402a0a:	66 3d 22 00          	cmp    $0x22,%ax
  402a0e:	74 f5                	je     0x402a05
  402a10:	66 89 01             	mov    %ax,(%ecx)
  402a13:	41                   	inc    %ecx
  402a14:	41                   	inc    %ecx
  402a15:	66 85 c0             	test   %ax,%ax
  402a18:	75 eb                	jne    0x402a05
  402a1a:	c3                   	ret    
  402a1b:	55                   	push   %ebp
  402a1c:	8b ec                	mov    %esp,%ebp
  402a1e:	51                   	push   %ecx
  402a1f:	56                   	push   %esi
  402a20:	8b f2                	mov    %edx,%esi
  402a22:	33 c0                	xor    %eax,%eax
  402a24:	8d 55 fc             	lea    -0x4(%ebp),%edx
  402a27:	50                   	push   %eax
  402a28:	50                   	push   %eax
  402a29:	52                   	push   %edx
  402a2a:	50                   	push   %eax
  402a2b:	51                   	push   %ecx
  402a2c:	50                   	push   %eax
  402a2d:	68 00 13 00 00       	push   $0x1300
  402a32:	ff 15 30 80 40 00    	call   *0x408030
  402a38:	85 c0                	test   %eax,%eax
  402a3a:	74 16                	je     0x402a52
  402a3c:	ff 75 fc             	push   -0x4(%ebp)
  402a3f:	56                   	push   %esi
  402a40:	ff 15 80 80 40 00    	call   *0x408080
  402a46:	ff 75 fc             	push   -0x4(%ebp)
  402a49:	ff 15 64 80 40 00    	call   *0x408064
  402a4f:	6a 01                	push   $0x1
  402a51:	58                   	pop    %eax
  402a52:	5e                   	pop    %esi
  402a53:	c9                   	leave  
  402a54:	c3                   	ret    
  402a55:	85 d2                	test   %edx,%edx
  402a57:	75 03                	jne    0x402a5c
  402a59:	33 c0                	xor    %eax,%eax
  402a5b:	c3                   	ret    
  402a5c:	52                   	push   %edx
  402a5d:	ff 15 d4 80 40 00    	call   *0x4080d4
  402a63:	59                   	pop    %ecx
  402a64:	c3                   	ret    
  402a65:	52                   	push   %edx
  402a66:	ff 15 d8 80 40 00    	call   *0x4080d8
  402a6c:	59                   	pop    %ecx
  402a6d:	c3                   	ret    
  402a6e:	56                   	push   %esi
  402a6f:	8b f1                	mov    %ecx,%esi
  402a71:	e8 3a 00 00 00       	call   0x402ab0
  402a76:	33 c0                	xor    %eax,%eax
  402a78:	89 46 40             	mov    %eax,0x40(%esi)
  402a7b:	89 46 48             	mov    %eax,0x48(%esi)
  402a7e:	89 46 44             	mov    %eax,0x44(%esi)
  402a81:	89 46 4c             	mov    %eax,0x4c(%esi)
  402a84:	89 46 50             	mov    %eax,0x50(%esi)
  402a87:	89 46 74             	mov    %eax,0x74(%esi)
  402a8a:	89 46 78             	mov    %eax,0x78(%esi)
  402a8d:	89 46 7c             	mov    %eax,0x7c(%esi)
  402a90:	89 86 80 00 00 00    	mov    %eax,0x80(%esi)
  402a96:	89 46 54             	mov    %eax,0x54(%esi)
  402a99:	89 46 58             	mov    %eax,0x58(%esi)
  402a9c:	89 46 5c             	mov    %eax,0x5c(%esi)
  402a9f:	89 46 60             	mov    %eax,0x60(%esi)
  402aa2:	89 46 64             	mov    %eax,0x64(%esi)
  402aa5:	89 46 68             	mov    %eax,0x68(%esi)
  402aa8:	89 46 6c             	mov    %eax,0x6c(%esi)
  402aab:	89 46 70             	mov    %eax,0x70(%esi)
  402aae:	5e                   	pop    %esi
  402aaf:	c3                   	ret    
  402ab0:	33 c0                	xor    %eax,%eax
  402ab2:	89 41 30             	mov    %eax,0x30(%ecx)
  402ab5:	89 01                	mov    %eax,(%ecx)
  402ab7:	89 41 04             	mov    %eax,0x4(%ecx)
  402aba:	89 41 08             	mov    %eax,0x8(%ecx)
  402abd:	89 41 0c             	mov    %eax,0xc(%ecx)
  402ac0:	89 41 10             	mov    %eax,0x10(%ecx)
  402ac3:	89 41 14             	mov    %eax,0x14(%ecx)
  402ac6:	89 41 18             	mov    %eax,0x18(%ecx)
  402ac9:	89 41 1c             	mov    %eax,0x1c(%ecx)
  402acc:	89 41 20             	mov    %eax,0x20(%ecx)
  402acf:	89 41 24             	mov    %eax,0x24(%ecx)
  402ad2:	89 41 28             	mov    %eax,0x28(%ecx)
  402ad5:	89 41 34             	mov    %eax,0x34(%ecx)
  402ad8:	c3                   	ret    
  402ad9:	56                   	push   %esi
  402ada:	57                   	push   %edi
  402adb:	8b f9                	mov    %ecx,%edi
  402add:	8b f2                	mov    %edx,%esi
  402adf:	8b ce                	mov    %esi,%ecx
  402ae1:	8b 57 4c             	mov    0x4c(%edi),%edx
  402ae4:	ff 56 04             	call   *0x4(%esi)
  402ae7:	8b 57 50             	mov    0x50(%edi),%edx
  402aea:	8b ce                	mov    %esi,%ecx
  402aec:	ff 56 04             	call   *0x4(%esi)
  402aef:	8b 57 74             	mov    0x74(%edi),%edx
  402af2:	8b ce                	mov    %esi,%ecx
  402af4:	ff 56 04             	call   *0x4(%esi)
  402af7:	8b 57 78             	mov    0x78(%edi),%edx
  402afa:	8b ce                	mov    %esi,%ecx
  402afc:	ff 56 04             	call   *0x4(%esi)
  402aff:	8b 57 7c             	mov    0x7c(%edi),%edx
  402b02:	8b ce                	mov    %esi,%ecx
  402b04:	ff 56 04             	call   *0x4(%esi)
  402b07:	8b 97 80 00 00 00    	mov    0x80(%edi),%edx
  402b0d:	8b ce                	mov    %esi,%ecx
  402b0f:	ff 56 04             	call   *0x4(%esi)
  402b12:	8b d6                	mov    %esi,%edx
  402b14:	8d 4f 54             	lea    0x54(%edi),%ecx
  402b17:	e8 30 00 00 00       	call   0x402b4c
  402b1c:	8b d6                	mov    %esi,%edx
  402b1e:	8d 4f 5c             	lea    0x5c(%edi),%ecx
  402b21:	e8 26 00 00 00       	call   0x402b4c
  402b26:	8b d6                	mov    %esi,%edx
  402b28:	8d 4f 64             	lea    0x64(%edi),%ecx
  402b2b:	e8 1c 00 00 00       	call   0x402b4c
  402b30:	8b d6                	mov    %esi,%edx
  402b32:	8d 4f 6c             	lea    0x6c(%edi),%ecx
  402b35:	e8 12 00 00 00       	call   0x402b4c
  402b3a:	8b d6                	mov    %esi,%edx
  402b3c:	8b cf                	mov    %edi,%ecx
  402b3e:	e8 28 00 00 00       	call   0x402b6b
  402b43:	8b cf                	mov    %edi,%ecx
  402b45:	5f                   	pop    %edi
  402b46:	5e                   	pop    %esi
  402b47:	e9 22 ff ff ff       	jmp    0x402a6e
  402b4c:	56                   	push   %esi
  402b4d:	57                   	push   %edi
  402b4e:	8b f1                	mov    %ecx,%esi
  402b50:	8b fa                	mov    %edx,%edi
  402b52:	8b cf                	mov    %edi,%ecx
  402b54:	8b 16                	mov    (%esi),%edx
  402b56:	ff 57 04             	call   *0x4(%edi)
  402b59:	8b 56 04             	mov    0x4(%esi),%edx
  402b5c:	83 26 00             	andl   $0x0,(%esi)
  402b5f:	8b cf                	mov    %edi,%ecx
  402b61:	ff 57 04             	call   *0x4(%edi)
  402b64:	83 66 04 00          	andl   $0x0,0x4(%esi)
  402b68:	5f                   	pop    %edi
  402b69:	5e                   	pop    %esi
  402b6a:	c3                   	ret    
  402b6b:	56                   	push   %esi
  402b6c:	57                   	push   %edi
  402b6d:	8b f9                	mov    %ecx,%edi
  402b6f:	8b f2                	mov    %edx,%esi
  402b71:	8b ce                	mov    %esi,%ecx
  402b73:	8b 57 08             	mov    0x8(%edi),%edx
  402b76:	ff 56 04             	call   *0x4(%esi)
  402b79:	8b d6                	mov    %esi,%edx
  402b7b:	8d 4f 0c             	lea    0xc(%edi),%ecx
  402b7e:	e8 c9 ff ff ff       	call   0x402b4c
  402b83:	8b 57 14             	mov    0x14(%edi),%edx
  402b86:	8b ce                	mov    %esi,%ecx
  402b88:	ff 56 04             	call   *0x4(%esi)
  402b8b:	8b 57 18             	mov    0x18(%edi),%edx
  402b8e:	8b ce                	mov    %esi,%ecx
  402b90:	ff 56 04             	call   *0x4(%esi)
  402b93:	8b 57 1c             	mov    0x1c(%edi),%edx
  402b96:	8b ce                	mov    %esi,%ecx
  402b98:	ff 56 04             	call   *0x4(%esi)
  402b9b:	8b 57 20             	mov    0x20(%edi),%edx
  402b9e:	8b ce                	mov    %esi,%ecx
  402ba0:	ff 56 04             	call   *0x4(%esi)
  402ba3:	8b 57 24             	mov    0x24(%edi),%edx
  402ba6:	8b ce                	mov    %esi,%ecx
  402ba8:	ff 56 04             	call   *0x4(%esi)
  402bab:	8b 57 28             	mov    0x28(%edi),%edx
  402bae:	8b ce                	mov    %esi,%ecx
  402bb0:	ff 56 04             	call   *0x4(%esi)
  402bb3:	8b cf                	mov    %edi,%ecx
  402bb5:	5f                   	pop    %edi
  402bb6:	5e                   	pop    %esi
  402bb7:	e9 f4 fe ff ff       	jmp    0x402ab0
  402bbc:	55                   	push   %ebp
  402bbd:	8b ec                	mov    %esp,%ebp
  402bbf:	83 ec 30             	sub    $0x30,%esp
  402bc2:	53                   	push   %ebx
  402bc3:	56                   	push   %esi
  402bc4:	8b f2                	mov    %edx,%esi
  402bc6:	57                   	push   %edi
  402bc7:	8b d9                	mov    %ecx,%ebx
  402bc9:	33 ff                	xor    %edi,%edi
  402bcb:	8b 06                	mov    (%esi),%eax
  402bcd:	8d 55 f0             	lea    -0x10(%ebp),%edx
  402bd0:	8b ce                	mov    %esi,%ecx
  402bd2:	89 5d d0             	mov    %ebx,-0x30(%ebp)
  402bd5:	89 7d f8             	mov    %edi,-0x8(%ebp)
  402bd8:	89 45 d4             	mov    %eax,-0x2c(%ebp)
  402bdb:	89 3b                	mov    %edi,(%ebx)
  402bdd:	89 7b 04             	mov    %edi,0x4(%ebx)
  402be0:	89 7b 08             	mov    %edi,0x8(%ebx)
  402be3:	89 7b 0c             	mov    %edi,0xc(%ebx)
  402be6:	e8 f8 02 00 00       	call   0x402ee3
  402beb:	3b c7                	cmp    %edi,%eax
  402bed:	0f 85 eb 02 00 00    	jne    0x402ede
  402bf3:	8b 45 f0             	mov    -0x10(%ebp),%eax
  402bf6:	3b c7                	cmp    %edi,%eax
  402bf8:	0f 84 dd 02 00 00    	je     0x402edb
  402bfe:	83 f8 04             	cmp    $0x4,%eax
  402c01:	0f 87 d4 02 00 00    	ja     0x402edb
  402c07:	3b c7                	cmp    %edi,%eax
  402c09:	89 7d f4             	mov    %edi,-0xc(%ebp)
  402c0c:	0f 86 47 01 00 00    	jbe    0x402d59
  402c12:	8d 7b 38             	lea    0x38(%ebx),%edi
  402c15:	8b 46 04             	mov    0x4(%esi),%eax
  402c18:	85 c0                	test   %eax,%eax
  402c1a:	0f 84 b7 02 00 00    	je     0x402ed7
  402c20:	8b 1e                	mov    (%esi),%ebx
  402c22:	48                   	dec    %eax
  402c23:	89 46 04             	mov    %eax,0x4(%esi)
  402c26:	89 45 ec             	mov    %eax,-0x14(%ebp)
  402c29:	8a 0b                	mov    (%ebx),%cl
  402c2b:	43                   	inc    %ebx
  402c2c:	f6 c1 c0             	test   $0xc0,%cl
  402c2f:	88 4d ff             	mov    %cl,-0x1(%ebp)
  402c32:	89 5d e4             	mov    %ebx,-0x1c(%ebp)
  402c35:	89 1e                	mov    %ebx,(%esi)
  402c37:	0f 85 9e 02 00 00    	jne    0x402edb
  402c3d:	83 e1 0f             	and    $0xf,%ecx
  402c40:	83 f9 08             	cmp    $0x8,%ecx
  402c43:	0f 87 92 02 00 00    	ja     0x402edb
  402c49:	3b c8                	cmp    %eax,%ecx
  402c4b:	0f 87 86 02 00 00    	ja     0x402ed7
  402c51:	33 c0                	xor    %eax,%eax
  402c53:	33 d2                	xor    %edx,%edx
  402c55:	85 c9                	test   %ecx,%ecx
  402c57:	76 47                	jbe    0x402ca0
  402c59:	89 4d e0             	mov    %ecx,-0x20(%ebp)
  402c5c:	6a 08                	push   $0x8
  402c5e:	59                   	pop    %ecx
  402c5f:	e8 cc 45 00 00       	call   0x407230
  402c64:	8b c8                	mov    %eax,%ecx
  402c66:	0f b6 03             	movzbl (%ebx),%eax
  402c69:	8b d9                	mov    %ecx,%ebx
  402c6b:	8b ca                	mov    %edx,%ecx
  402c6d:	99                   	cltd   
  402c6e:	0b d8                	or     %eax,%ebx
  402c70:	0b ca                	or     %edx,%ecx
  402c72:	8b c3                	mov    %ebx,%eax
  402c74:	8b 5d e4             	mov    -0x1c(%ebp),%ebx
  402c77:	43                   	inc    %ebx
  402c78:	ff 4d ec             	decl   -0x14(%ebp)
  402c7b:	ff 4d e0             	decl   -0x20(%ebp)
  402c7e:	8b d1                	mov    %ecx,%edx
  402c80:	8b 4d ec             	mov    -0x14(%ebp),%ecx
  402c83:	89 5d e4             	mov    %ebx,-0x1c(%ebp)
  402c86:	89 1e                	mov    %ebx,(%esi)
  402c88:	89 4e 04             	mov    %ecx,0x4(%esi)
  402c8b:	75 cf                	jne    0x402c5c
  402c8d:	85 d2                	test   %edx,%edx
  402c8f:	0f 87 46 02 00 00    	ja     0x402edb
  402c95:	72 09                	jb     0x402ca0
  402c97:	83 f8 ff             	cmp    $0xffffffff,%eax
  402c9a:	0f 87 3b 02 00 00    	ja     0x402edb
  402ca0:	83 27 00             	andl   $0x0,(%edi)
  402ca3:	80 67 09 00          	andb   $0x0,0x9(%edi)
  402ca7:	f6 45 ff 10          	testb  $0x10,-0x1(%ebp)
  402cab:	89 47 04             	mov    %eax,0x4(%edi)
  402cae:	c6 47 08 01          	movb   $0x1,0x8(%edi)
  402cb2:	74 3d                	je     0x402cf1
  402cb4:	8d 55 e8             	lea    -0x18(%ebp),%edx
  402cb7:	8b ce                	mov    %esi,%ecx
  402cb9:	e8 25 02 00 00       	call   0x402ee3
  402cbe:	85 c0                	test   %eax,%eax
  402cc0:	0f 85 18 02 00 00    	jne    0x402ede
  402cc6:	8b 45 e8             	mov    -0x18(%ebp),%eax
  402cc9:	83 f8 07             	cmp    $0x7,%eax
  402ccc:	0f 87 09 02 00 00    	ja     0x402edb
  402cd2:	8d 55 e8             	lea    -0x18(%ebp),%edx
  402cd5:	8b ce                	mov    %esi,%ecx
  402cd7:	88 47 08             	mov    %al,0x8(%edi)
  402cda:	e8 04 02 00 00       	call   0x402ee3
  402cdf:	85 c0                	test   %eax,%eax
  402ce1:	0f 85 f7 01 00 00    	jne    0x402ede
  402ce7:	83 7d e8 01          	cmpl   $0x1,-0x18(%ebp)
  402ceb:	0f 85 ea 01 00 00    	jne    0x402edb
  402cf1:	0f b6 47 08          	movzbl 0x8(%edi),%eax
  402cf5:	01 45 f8             	add    %eax,-0x8(%ebp)
  402cf8:	83 7d f8 07          	cmpl   $0x7,-0x8(%ebp)
  402cfc:	0f 87 d9 01 00 00    	ja     0x402edb
  402d02:	f6 45 ff 20          	testb  $0x20,-0x1(%ebp)
  402d06:	74 3c                	je     0x402d44
  402d08:	83 65 e0 00          	andl   $0x0,-0x20(%ebp)
  402d0c:	8d 55 e0             	lea    -0x20(%ebp),%edx
  402d0f:	8b ce                	mov    %esi,%ecx
  402d11:	e8 cd 01 00 00       	call   0x402ee3
  402d16:	85 c0                	test   %eax,%eax
  402d18:	0f 85 c0 01 00 00    	jne    0x402ede
  402d1e:	8b 45 e0             	mov    -0x20(%ebp),%eax
  402d21:	3b 46 04             	cmp    0x4(%esi),%eax
  402d24:	0f 87 ad 01 00 00    	ja     0x402ed7
  402d2a:	3d 80 00 00 00       	cmp    $0x80,%eax
  402d2f:	0f 83 a6 01 00 00    	jae    0x402edb
  402d35:	8b 0e                	mov    (%esi),%ecx
  402d37:	88 47 09             	mov    %al,0x9(%edi)
  402d3a:	2b 4d d4             	sub    -0x2c(%ebp),%ecx
  402d3d:	89 0f                	mov    %ecx,(%edi)
  402d3f:	01 06                	add    %eax,(%esi)
  402d41:	29 46 04             	sub    %eax,0x4(%esi)
  402d44:	ff 45 f4             	incl   -0xc(%ebp)
  402d47:	8b 45 f0             	mov    -0x10(%ebp),%eax
  402d4a:	83 c7 0c             	add    $0xc,%edi
  402d4d:	39 45 f4             	cmp    %eax,-0xc(%ebp)
  402d50:	0f 82 bf fe ff ff    	jb     0x402c15
  402d56:	8b 5d d0             	mov    -0x30(%ebp),%ebx
  402d59:	48                   	dec    %eax
  402d5a:	39 45 f8             	cmp    %eax,-0x8(%ebp)
  402d5d:	89 45 e8             	mov    %eax,-0x18(%ebp)
  402d60:	0f 82 71 01 00 00    	jb     0x402ed7
  402d66:	83 f8 03             	cmp    $0x3,%eax
  402d69:	0f 87 6c 01 00 00    	ja     0x402edb
  402d6f:	8b 7d f8             	mov    -0x8(%ebp),%edi
  402d72:	89 43 04             	mov    %eax,0x4(%ebx)
  402d75:	2b f8                	sub    %eax,%edi
  402d77:	83 ff 04             	cmp    $0x4,%edi
  402d7a:	89 7d ec             	mov    %edi,-0x14(%ebp)
  402d7d:	0f 87 58 01 00 00    	ja     0x402edb
  402d83:	83 7d f8 00          	cmpl   $0x0,-0x8(%ebp)
  402d87:	89 7b 08             	mov    %edi,0x8(%ebx)
  402d8a:	76 1c                	jbe    0x402da8
  402d8c:	8b 4d f8             	mov    -0x8(%ebp),%ecx
  402d8f:	33 c0                	xor    %eax,%eax
  402d91:	8b d1                	mov    %ecx,%edx
  402d93:	8d 7d d4             	lea    -0x2c(%ebp),%edi
  402d96:	c1 e9 02             	shr    $0x2,%ecx
  402d99:	f3 ab                	rep stos %eax,%es:(%edi)
  402d9b:	8b ca                	mov    %edx,%ecx
  402d9d:	83 e1 03             	and    $0x3,%ecx
  402da0:	f3 aa                	rep stos %al,%es:(%edi)
  402da2:	8b 45 e8             	mov    -0x18(%ebp),%eax
  402da5:	8b 7d ec             	mov    -0x14(%ebp),%edi
  402da8:	85 c0                	test   %eax,%eax
  402daa:	0f 84 b8 00 00 00    	je     0x402e68
  402db0:	8b 4d f0             	mov    -0x10(%ebp),%ecx
  402db3:	85 c9                	test   %ecx,%ecx
  402db5:	76 19                	jbe    0x402dd0
  402db7:	8b d1                	mov    %ecx,%edx
  402db9:	33 c0                	xor    %eax,%eax
  402dbb:	8d 7d e0             	lea    -0x20(%ebp),%edi
  402dbe:	c1 e9 02             	shr    $0x2,%ecx
  402dc1:	f3 ab                	rep stos %eax,%es:(%edi)
  402dc3:	8b ca                	mov    %edx,%ecx
  402dc5:	83 e1 03             	and    $0x3,%ecx
  402dc8:	f3 aa                	rep stos %al,%es:(%edi)
  402dca:	8b 45 e8             	mov    -0x18(%ebp),%eax
  402dcd:	8b 7d ec             	mov    -0x14(%ebp),%edi
  402dd0:	83 65 f4 00          	andl   $0x0,-0xc(%ebp)
  402dd4:	85 c0                	test   %eax,%eax
  402dd6:	76 72                	jbe    0x402e4a
  402dd8:	8d 7b 20             	lea    0x20(%ebx),%edi
  402ddb:	8b d7                	mov    %edi,%edx
  402ddd:	8b ce                	mov    %esi,%ecx
  402ddf:	e8 ff 00 00 00       	call   0x402ee3
  402de4:	85 c0                	test   %eax,%eax
  402de6:	0f 85 f2 00 00 00    	jne    0x402ede
  402dec:	8b 07                	mov    (%edi),%eax
  402dee:	3b 45 f8             	cmp    -0x8(%ebp),%eax
  402df1:	0f 83 e0 00 00 00    	jae    0x402ed7
  402df7:	80 7c 05 d4 00       	cmpb   $0x0,-0x2c(%ebp,%eax,1)
  402dfc:	8d 44 05 d4          	lea    -0x2c(%ebp,%eax,1),%eax
  402e00:	0f 85 d1 00 00 00    	jne    0x402ed7
  402e06:	8d 57 04             	lea    0x4(%edi),%edx
  402e09:	8b ce                	mov    %esi,%ecx
  402e0b:	c6 00 01             	movb   $0x1,(%eax)
  402e0e:	e8 d0 00 00 00       	call   0x402ee3
  402e13:	85 c0                	test   %eax,%eax
  402e15:	0f 85 c3 00 00 00    	jne    0x402ede
  402e1b:	8b 47 04             	mov    0x4(%edi),%eax
  402e1e:	3b 45 f0             	cmp    -0x10(%ebp),%eax
  402e21:	0f 83 b0 00 00 00    	jae    0x402ed7
  402e27:	80 7c 05 e0 00       	cmpb   $0x0,-0x20(%ebp,%eax,1)
  402e2c:	8d 44 05 e0          	lea    -0x20(%ebp,%eax,1),%eax
  402e30:	0f 85 a1 00 00 00    	jne    0x402ed7
  402e36:	ff 45 f4             	incl   -0xc(%ebp)
  402e39:	c6 00 01             	movb   $0x1,(%eax)
  402e3c:	8b 45 f4             	mov    -0xc(%ebp),%eax
  402e3f:	83 c7 08             	add    $0x8,%edi
  402e42:	3b 45 e8             	cmp    -0x18(%ebp),%eax
  402e45:	72 94                	jb     0x402ddb
  402e47:	8b 7d ec             	mov    -0x14(%ebp),%edi
  402e4a:	33 c0                	xor    %eax,%eax
  402e4c:	39 45 f0             	cmp    %eax,-0x10(%ebp)
  402e4f:	76 12                	jbe    0x402e63
  402e51:	80 7c 05 e0 00       	cmpb   $0x0,-0x20(%ebp,%eax,1)
  402e56:	74 08                	je     0x402e60
  402e58:	40                   	inc    %eax
  402e59:	3b 45 f0             	cmp    -0x10(%ebp),%eax
  402e5c:	72 f3                	jb     0x402e51
  402e5e:	eb 03                	jmp    0x402e63
  402e60:	89 43 0c             	mov    %eax,0xc(%ebx)
  402e63:	3b 45 f0             	cmp    -0x10(%ebp),%eax
  402e66:	74 6f                	je     0x402ed7
  402e68:	83 ff 01             	cmp    $0x1,%edi
  402e6b:	75 25                	jne    0x402e92
  402e6d:	33 c0                	xor    %eax,%eax
  402e6f:	39 45 f8             	cmp    %eax,-0x8(%ebp)
  402e72:	76 0d                	jbe    0x402e81
  402e74:	80 7c 05 d4 00       	cmpb   $0x0,-0x2c(%ebp,%eax,1)
  402e79:	74 06                	je     0x402e81
  402e7b:	40                   	inc    %eax
  402e7c:	3b 45 f8             	cmp    -0x8(%ebp),%eax
  402e7f:	72 f3                	jb     0x402e74
  402e81:	3b 45 f8             	cmp    -0x8(%ebp),%eax
  402e84:	74 51                	je     0x402ed7
  402e86:	89 43 10             	mov    %eax,0x10(%ebx)
  402e89:	8b 45 f0             	mov    -0x10(%ebp),%eax
  402e8c:	89 03                	mov    %eax,(%ebx)
  402e8e:	33 c0                	xor    %eax,%eax
  402e90:	eb 4c                	jmp    0x402ede
  402e92:	83 65 f4 00          	andl   $0x0,-0xc(%ebp)
  402e96:	85 ff                	test   %edi,%edi
  402e98:	76 ef                	jbe    0x402e89
  402e9a:	8d 43 10             	lea    0x10(%ebx),%eax
  402e9d:	89 45 e8             	mov    %eax,-0x18(%ebp)
  402ea0:	8d 55 d0             	lea    -0x30(%ebp),%edx
  402ea3:	8b ce                	mov    %esi,%ecx
  402ea5:	e8 39 00 00 00       	call   0x402ee3
  402eaa:	85 c0                	test   %eax,%eax
  402eac:	75 30                	jne    0x402ede
  402eae:	8b 4d d0             	mov    -0x30(%ebp),%ecx
  402eb1:	3b 4d f8             	cmp    -0x8(%ebp),%ecx
  402eb4:	73 21                	jae    0x402ed7
  402eb6:	80 7c 0d d4 00       	cmpb   $0x0,-0x2c(%ebp,%ecx,1)
  402ebb:	8d 44 0d d4          	lea    -0x2c(%ebp,%ecx,1),%eax
  402ebf:	75 16                	jne    0x402ed7
  402ec1:	ff 45 f4             	incl   -0xc(%ebp)
  402ec4:	c6 00 01             	movb   $0x1,(%eax)
  402ec7:	8b 45 e8             	mov    -0x18(%ebp),%eax
  402eca:	83 45 e8 04          	addl   $0x4,-0x18(%ebp)
  402ece:	39 7d f4             	cmp    %edi,-0xc(%ebp)
  402ed1:	89 08                	mov    %ecx,(%eax)
  402ed3:	72 cb                	jb     0x402ea0
  402ed5:	eb b2                	jmp    0x402e89
  402ed7:	6a 10                	push   $0x10
  402ed9:	eb 02                	jmp    0x402edd
  402edb:	6a 04                	push   $0x4
  402edd:	58                   	pop    %eax
  402ede:	5f                   	pop    %edi
  402edf:	5e                   	pop    %esi
  402ee0:	5b                   	pop    %ebx
  402ee1:	c9                   	leave  
  402ee2:	c3                   	ret    
  402ee3:	55                   	push   %ebp
  402ee4:	8b ec                	mov    %esp,%ebp
  402ee6:	51                   	push   %ecx
  402ee7:	51                   	push   %ecx
  402ee8:	83 79 04 00          	cmpl   $0x0,0x4(%ecx)
  402eec:	56                   	push   %esi
  402eed:	8b f2                	mov    %edx,%esi
  402eef:	75 04                	jne    0x402ef5
  402ef1:	6a 10                	push   $0x10
  402ef3:	eb 3e                	jmp    0x402f33
  402ef5:	8b 01                	mov    (%ecx),%eax
  402ef7:	8a 00                	mov    (%eax),%al
  402ef9:	a8 80                	test   $0x80,%al
  402efb:	75 0c                	jne    0x402f09
  402efd:	0f b6 c0             	movzbl %al,%eax
  402f00:	89 06                	mov    %eax,(%esi)
  402f02:	ff 01                	incl   (%ecx)
  402f04:	ff 49 04             	decl   0x4(%ecx)
  402f07:	eb 2f                	jmp    0x402f38
  402f09:	8d 55 f8             	lea    -0x8(%ebp),%edx
  402f0c:	e8 2c 00 00 00       	call   0x402f3d
  402f11:	85 c0                	test   %eax,%eax
  402f13:	75 25                	jne    0x402f3a
  402f15:	39 45 fc             	cmp    %eax,-0x4(%ebp)
  402f18:	77 17                	ja     0x402f31
  402f1a:	8b 45 f8             	mov    -0x8(%ebp),%eax
  402f1d:	3d ff ff ff 7f       	cmp    $0x7fffffff,%eax
  402f22:	73 0d                	jae    0x402f31
  402f24:	83 7d fc 00          	cmpl   $0x0,-0x4(%ebp)
  402f28:	77 07                	ja     0x402f31
  402f2a:	3d 00 00 00 10       	cmp    $0x10000000,%eax
  402f2f:	72 05                	jb     0x402f36
  402f31:	6a 04                	push   $0x4
  402f33:	58                   	pop    %eax
  402f34:	eb 04                	jmp    0x402f3a
  402f36:	89 06                	mov    %eax,(%esi)
  402f38:	33 c0                	xor    %eax,%eax
  402f3a:	5e                   	pop    %esi
  402f3b:	c9                   	leave  
  402f3c:	c3                   	ret    
  402f3d:	55                   	push   %ebp
  402f3e:	8b ec                	mov    %esp,%ebp
  402f40:	83 ec 0c             	sub    $0xc,%esp
  402f43:	53                   	push   %ebx
  402f44:	56                   	push   %esi
  402f45:	8b f1                	mov    %ecx,%esi
  402f47:	57                   	push   %edi
  402f48:	8b fa                	mov    %edx,%edi
  402f4a:	8b 4e 04             	mov    0x4(%esi),%ecx
  402f4d:	85 c9                	test   %ecx,%ecx
  402f4f:	0f 84 d4 00 00 00    	je     0x403029
  402f55:	8b 06                	mov    (%esi),%eax
  402f57:	49                   	dec    %ecx
  402f58:	89 4e 04             	mov    %ecx,0x4(%esi)
  402f5b:	8a 18                	mov    (%eax),%bl
  402f5d:	40                   	inc    %eax
  402f5e:	f6 c3 80             	test   $0x80,%bl
  402f61:	89 06                	mov    %eax,(%esi)
  402f63:	75 10                	jne    0x402f75
  402f65:	0f b6 c3             	movzbl %bl,%eax
  402f68:	99                   	cltd   
  402f69:	89 07                	mov    %eax,(%edi)
  402f6b:	89 57 04             	mov    %edx,0x4(%edi)
  402f6e:	33 c0                	xor    %eax,%eax
  402f70:	5f                   	pop    %edi
  402f71:	5e                   	pop    %esi
  402f72:	5b                   	pop    %ebx
  402f73:	c9                   	leave  
  402f74:	c3                   	ret    
  402f75:	85 c9                	test   %ecx,%ecx
  402f77:	0f 84 ac 00 00 00    	je     0x403029
  402f7d:	49                   	dec    %ecx
  402f7e:	89 4e 04             	mov    %ecx,0x4(%esi)
  402f81:	0f b6 10             	movzbl (%eax),%edx
  402f84:	40                   	inc    %eax
  402f85:	f6 c3 40             	test   $0x40,%bl
  402f88:	89 06                	mov    %eax,(%esi)
  402f8a:	75 10                	jne    0x402f9c
  402f8c:	83 e3 3f             	and    $0x3f,%ebx
  402f8f:	c1 e3 08             	shl    $0x8,%ebx
  402f92:	0b da                	or     %edx,%ebx
  402f94:	89 1f                	mov    %ebx,(%edi)
  402f96:	83 67 04 00          	andl   $0x0,0x4(%edi)
  402f9a:	eb d2                	jmp    0x402f6e
  402f9c:	85 c9                	test   %ecx,%ecx
  402f9e:	0f 84 85 00 00 00    	je     0x403029
  402fa4:	49                   	dec    %ecx
  402fa5:	c6 45 ff 20          	movb   $0x20,-0x1(%ebp)
  402fa9:	89 4e 04             	mov    %ecx,0x4(%esi)
  402fac:	8a 08                	mov    (%eax),%cl
  402fae:	40                   	inc    %eax
  402faf:	c7 45 f4 02 00 00 00 	movl   $0x2,-0xc(%ebp)
  402fb6:	89 06                	mov    %eax,(%esi)
  402fb8:	33 c0                	xor    %eax,%eax
  402fba:	8a e1                	mov    %cl,%ah
  402fbc:	c7 45 f8 10 00 00 00 	movl   $0x10,-0x8(%ebp)
  402fc3:	0b c2                	or     %edx,%eax
  402fc5:	89 07                	mov    %eax,(%edi)
  402fc7:	83 67 04 00          	andl   $0x0,0x4(%edi)
  402fcb:	84 5d ff             	test   %bl,-0x1(%ebp)
  402fce:	74 38                	je     0x403008
  402fd0:	8b 46 04             	mov    0x4(%esi),%eax
  402fd3:	85 c0                	test   %eax,%eax
  402fd5:	74 52                	je     0x403029
  402fd7:	48                   	dec    %eax
  402fd8:	89 46 04             	mov    %eax,0x4(%esi)
  402fdb:	8b 06                	mov    (%esi),%eax
  402fdd:	8a 08                	mov    (%eax),%cl
  402fdf:	40                   	inc    %eax
  402fe0:	89 06                	mov    %eax,(%esi)
  402fe2:	0f b6 c1             	movzbl %cl,%eax
  402fe5:	8b 4d f8             	mov    -0x8(%ebp),%ecx
  402fe8:	99                   	cltd   
  402fe9:	e8 42 42 00 00       	call   0x407230
  402fee:	09 07                	or     %eax,(%edi)
  402ff0:	09 57 04             	or     %edx,0x4(%edi)
  402ff3:	d0 6d ff             	shrb   -0x1(%ebp)
  402ff6:	83 45 f8 08          	addl   $0x8,-0x8(%ebp)
  402ffa:	ff 45 f4             	incl   -0xc(%ebp)
  402ffd:	83 7d f8 40          	cmpl   $0x40,-0x8(%ebp)
  403001:	72 c8                	jb     0x402fcb
  403003:	e9 66 ff ff ff       	jmp    0x402f6e
  403008:	0f b6 45 ff          	movzbl -0x1(%ebp),%eax
  40300c:	0f b6 cb             	movzbl %bl,%ecx
  40300f:	48                   	dec    %eax
  403010:	33 d2                	xor    %edx,%edx
  403012:	23 c1                	and    %ecx,%eax
  403014:	8b 4d f4             	mov    -0xc(%ebp),%ecx
  403017:	c1 e1 03             	shl    $0x3,%ecx
  40301a:	e8 11 42 00 00       	call   0x407230
  40301f:	09 07                	or     %eax,(%edi)
  403021:	09 57 04             	or     %edx,0x4(%edi)
  403024:	e9 45 ff ff ff       	jmp    0x402f6e
  403029:	6a 10                	push   $0x10
  40302b:	58                   	pop    %eax
  40302c:	e9 3f ff ff ff       	jmp    0x402f70
  403031:	8b 41 1c             	mov    0x1c(%ecx),%eax
  403034:	56                   	push   %esi
  403035:	8b 71 20             	mov    0x20(%ecx),%esi
  403038:	8b 49 24             	mov    0x24(%ecx),%ecx
  40303b:	0f b6 34 16          	movzbl (%esi,%edx,1),%esi
  40303f:	8b 14 90             	mov    (%eax,%edx,4),%edx
  403042:	03 d6                	add    %esi,%edx
  403044:	5e                   	pop    %esi
  403045:	8b 04 d1             	mov    (%ecx,%edx,8),%eax
  403048:	8b 54 d1 04          	mov    0x4(%ecx,%edx,8),%edx
  40304c:	c3                   	ret    
  40304d:	56                   	push   %esi
  40304e:	57                   	push   %edi
  40304f:	ff 74 24 10          	push   0x10(%esp)
  403053:	8b f1                	mov    %ecx,%esi
  403055:	ff 74 24 10          	push   0x10(%esp)
  403059:	e8 18 00 00 00       	call   0x403076
  40305e:	8b f8                	mov    %eax,%edi
  403060:	85 ff                	test   %edi,%edi
  403062:	74 0b                	je     0x40306f
  403064:	8b 54 24 0c          	mov    0xc(%esp),%edx
  403068:	8b ce                	mov    %esi,%ecx
  40306a:	e8 6a fa ff ff       	call   0x402ad9
  40306f:	8b c7                	mov    %edi,%eax
  403071:	5f                   	pop    %edi
  403072:	5e                   	pop    %esi
  403073:	c2 08 00             	ret    $0x8
  403076:	55                   	push   %ebp
  403077:	8b ec                	mov    %esp,%ebp
  403079:	81 ec 90 00 00 00    	sub    $0x90,%esp
  40307f:	83 65 dc 00          	andl   $0x0,-0x24(%ebp)
  403083:	83 65 e0 00          	andl   $0x0,-0x20(%ebp)
  403087:	53                   	push   %ebx
  403088:	56                   	push   %esi
  403089:	57                   	push   %edi
  40308a:	8b f2                	mov    %edx,%esi
  40308c:	8b f9                	mov    %ecx,%edi
  40308e:	6a 01                	push   $0x1
  403090:	8d 55 dc             	lea    -0x24(%ebp),%edx
  403093:	8b ce                	mov    %esi,%ecx
  403095:	89 75 ec             	mov    %esi,-0x14(%ebp)
  403098:	89 7d d8             	mov    %edi,-0x28(%ebp)
  40309b:	ff 56 0c             	call   *0xc(%esi)
  40309e:	85 c0                	test   %eax,%eax
  4030a0:	0f 85 98 02 00 00    	jne    0x40333e
  4030a6:	6a 11                	push   $0x11
  4030a8:	6a 20                	push   $0x20
  4030aa:	8d 55 b0             	lea    -0x50(%ebp),%edx
  4030ad:	8b ce                	mov    %esi,%ecx
  4030af:	e8 4f 24 00 00       	call   0x405503
  4030b4:	85 c0                	test   %eax,%eax
  4030b6:	0f 85 82 02 00 00    	jne    0x40333e
  4030bc:	8d 4d b0             	lea    -0x50(%ebp),%ecx
  4030bf:	e8 81 02 00 00       	call   0x403345
  4030c4:	85 c0                	test   %eax,%eax
  4030c6:	0f 84 6f 02 00 00    	je     0x40333b
  4030cc:	80 7d b6 00          	cmpb   $0x0,-0x4a(%ebp)
  4030d0:	74 07                	je     0x4030d9
  4030d2:	6a 04                	push   $0x4
  4030d4:	e9 64 02 00 00       	jmp    0x40333d
  4030d9:	8b 45 c4             	mov    -0x3c(%ebp),%eax
  4030dc:	8b 4d e0             	mov    -0x20(%ebp),%ecx
  4030df:	89 45 f8             	mov    %eax,-0x8(%ebp)
  4030e2:	8b 45 c8             	mov    -0x38(%ebp),%eax
  4030e5:	89 45 fc             	mov    %eax,-0x4(%ebp)
  4030e8:	8b 45 cc             	mov    -0x34(%ebp),%eax
  4030eb:	89 45 d4             	mov    %eax,-0x2c(%ebp)
  4030ee:	8b 45 dc             	mov    -0x24(%ebp),%eax
  4030f1:	8b 5d bc             	mov    -0x44(%ebp),%ebx
  4030f4:	8b 75 c0             	mov    -0x40(%ebp),%esi
  4030f7:	83 c0 20             	add    $0x20,%eax
  4030fa:	6a 14                	push   $0x14
  4030fc:	83 d1 00             	adc    $0x0,%ecx
  4030ff:	89 47 38             	mov    %eax,0x38(%edi)
  403102:	89 4f 3c             	mov    %ecx,0x3c(%edi)
  403105:	5a                   	pop    %edx
  403106:	8d 4d bc             	lea    -0x44(%ebp),%ecx
  403109:	e8 5b 40 00 00       	call   0x407169
  40310e:	3b 45 b8             	cmp    -0x48(%ebp),%eax
  403111:	74 07                	je     0x40311a
  403113:	6a 03                	push   $0x3
  403115:	e9 23 02 00 00       	jmp    0x40333d
  40311a:	89 5f 30             	mov    %ebx,0x30(%edi)
  40311d:	89 77 34             	mov    %esi,0x34(%edi)
  403120:	8b 7d f8             	mov    -0x8(%ebp),%edi
  403123:	33 c0                	xor    %eax,%eax
  403125:	3b ff                	cmp    %edi,%edi
  403127:	0f 85 de 00 00 00    	jne    0x40320b
  40312d:	3b 45 fc             	cmp    -0x4(%ebp),%eax
  403130:	0f 85 d5 00 00 00    	jne    0x40320b
  403136:	85 ff                	test   %edi,%edi
  403138:	0f 84 00 02 00 00    	je     0x40333e
  40313e:	8b 45 fc             	mov    -0x4(%ebp),%eax
  403141:	03 fb                	add    %ebx,%edi
  403143:	13 c6                	adc    %esi,%eax
  403145:	3b f0                	cmp    %eax,%esi
  403147:	89 45 ac             	mov    %eax,-0x54(%ebp)
  40314a:	0f 87 eb 01 00 00    	ja     0x40333b
  403150:	72 08                	jb     0x40315a
  403152:	3b df                	cmp    %edi,%ebx
  403154:	0f 87 e1 01 00 00    	ja     0x40333b
  40315a:	8b cf                	mov    %edi,%ecx
  40315c:	6a 00                	push   $0x0
  40315e:	83 c1 20             	add    $0x20,%ecx
  403161:	5a                   	pop    %edx
  403162:	13 c2                	adc    %edx,%eax
  403164:	3b f0                	cmp    %eax,%esi
  403166:	0f 87 cf 01 00 00    	ja     0x40333b
  40316c:	72 08                	jb     0x403176
  40316e:	3b d9                	cmp    %ecx,%ebx
  403170:	0f 87 c5 01 00 00    	ja     0x40333b
  403176:	8b 4d ec             	mov    -0x14(%ebp),%ecx
  403179:	89 55 f0             	mov    %edx,-0x10(%ebp)
  40317c:	89 55 f4             	mov    %edx,-0xc(%ebp)
  40317f:	6a 02                	push   $0x2
  403181:	8d 55 f0             	lea    -0x10(%ebp),%edx
  403184:	ff 51 0c             	call   *0xc(%ecx)
  403187:	85 c0                	test   %eax,%eax
  403189:	0f 85 af 01 00 00    	jne    0x40333e
  40318f:	03 5d dc             	add    -0x24(%ebp),%ebx
  403192:	13 75 e0             	adc    -0x20(%ebp),%esi
  403195:	39 75 f4             	cmp    %esi,-0xc(%ebp)
  403198:	0f 82 99 01 00 00    	jb     0x403337
  40319e:	77 09                	ja     0x4031a9
  4031a0:	39 5d f0             	cmp    %ebx,-0x10(%ebp)
  4031a3:	0f 82 8e 01 00 00    	jb     0x403337
  4031a9:	83 c3 20             	add    $0x20,%ebx
  4031ac:	83 d6 00             	adc    $0x0,%esi
  4031af:	39 75 f4             	cmp    %esi,-0xc(%ebp)
  4031b2:	0f 82 7f 01 00 00    	jb     0x403337
  4031b8:	77 09                	ja     0x4031c3
  4031ba:	39 5d f0             	cmp    %ebx,-0x10(%ebp)
  4031bd:	0f 82 74 01 00 00    	jb     0x403337
  4031c3:	03 7d dc             	add    -0x24(%ebp),%edi
  4031c6:	8b 45 ac             	mov    -0x54(%ebp),%eax
  4031c9:	13 45 e0             	adc    -0x20(%ebp),%eax
  4031cc:	83 c7 20             	add    $0x20,%edi
  4031cf:	83 d0 00             	adc    $0x0,%eax
  4031d2:	39 45 f4             	cmp    %eax,-0xc(%ebp)
  4031d5:	0f 82 5c 01 00 00    	jb     0x403337
  4031db:	77 09                	ja     0x4031e6
  4031dd:	39 7d f0             	cmp    %edi,-0x10(%ebp)
  4031e0:	0f 82 51 01 00 00    	jb     0x403337
  4031e6:	8b 4d ec             	mov    -0x14(%ebp),%ecx
  4031e9:	56                   	push   %esi
  4031ea:	53                   	push   %ebx
  4031eb:	e8 f6 22 00 00       	call   0x4054e6
  4031f0:	85 c0                	test   %eax,%eax
  4031f2:	0f 85 46 01 00 00    	jne    0x40333e
  4031f8:	8b 5d 0c             	mov    0xc(%ebp),%ebx
  4031fb:	8b 55 f8             	mov    -0x8(%ebp),%edx
  4031fe:	53                   	push   %ebx
  4031ff:	8d 4d e4             	lea    -0x1c(%ebp),%ecx
  403202:	e8 f0 19 00 00       	call   0x404bf7
  403207:	85 c0                	test   %eax,%eax
  403209:	75 07                	jne    0x403212
  40320b:	6a 02                	push   $0x2
  40320d:	e9 2b 01 00 00       	jmp    0x40333d
  403212:	ff 75 f8             	push   -0x8(%ebp)
  403215:	8b 55 e4             	mov    -0x1c(%ebp),%edx
  403218:	8b 4d ec             	mov    -0x14(%ebp),%ecx
  40321b:	e8 21 23 00 00       	call   0x405541
  403220:	8b f8                	mov    %eax,%edi
  403222:	85 ff                	test   %edi,%edi
  403224:	0f 85 ff 00 00 00    	jne    0x403329
  40322a:	8b 55 f8             	mov    -0x8(%ebp),%edx
  40322d:	8b 4d e4             	mov    -0x1c(%ebp),%ecx
  403230:	6a 10                	push   $0x10
  403232:	5f                   	pop    %edi
  403233:	e8 31 3f 00 00       	call   0x407169
  403238:	3b 45 d4             	cmp    -0x2c(%ebp),%eax
  40323b:	0f 85 e8 00 00 00    	jne    0x403329
  403241:	8b 45 e4             	mov    -0x1c(%ebp),%eax
  403244:	8d 55 f0             	lea    -0x10(%ebp),%edx
  403247:	89 45 f8             	mov    %eax,-0x8(%ebp)
  40324a:	8b 45 e8             	mov    -0x18(%ebp),%eax
  40324d:	8d 4d f8             	lea    -0x8(%ebp),%ecx
  403250:	89 45 fc             	mov    %eax,-0x4(%ebp)
  403253:	e8 e5 fc ff ff       	call   0x402f3d
  403258:	8b f8                	mov    %eax,%edi
  40325a:	85 ff                	test   %edi,%edi
  40325c:	0f 85 c7 00 00 00    	jne    0x403329
  403262:	83 7d f0 17          	cmpl   $0x17,-0x10(%ebp)
  403266:	0f 85 96 00 00 00    	jne    0x403302
  40326c:	39 45 f4             	cmp    %eax,-0xc(%ebp)
  40326f:	0f 85 8d 00 00 00    	jne    0x403302
  403275:	8d 4d d0             	lea    -0x30(%ebp),%ecx
  403278:	e8 72 19 00 00       	call   0x404bef
  40327d:	8d 8d 70 ff ff ff    	lea    -0x90(%ebp),%ecx
  403283:	e8 28 f8 ff ff       	call   0x402ab0
  403288:	8b 75 d8             	mov    -0x28(%ebp),%esi
  40328b:	8b 4d ec             	mov    -0x14(%ebp),%ecx
  40328e:	53                   	push   %ebx
  40328f:	8d 55 f8             	lea    -0x8(%ebp),%edx
  403292:	8b 46 30             	mov    0x30(%esi),%eax
  403295:	89 45 a0             	mov    %eax,-0x60(%ebp)
  403298:	8b 46 34             	mov    0x34(%esi),%eax
  40329b:	89 45 a4             	mov    %eax,-0x5c(%ebp)
  40329e:	8d 85 70 ff ff ff    	lea    -0x90(%ebp),%eax
  4032a4:	50                   	push   %eax
  4032a5:	8d 45 d0             	lea    -0x30(%ebp),%eax
  4032a8:	ff 76 3c             	push   0x3c(%esi)
  4032ab:	ff 76 38             	push   0x38(%esi)
  4032ae:	6a 01                	push   $0x1
  4032b0:	50                   	push   %eax
  4032b1:	e8 b8 00 00 00       	call   0x40336e
  4032b6:	8b d3                	mov    %ebx,%edx
  4032b8:	8d 8d 70 ff ff ff    	lea    -0x90(%ebp),%ecx
  4032be:	8b f8                	mov    %eax,%edi
  4032c0:	e8 a6 f8 ff ff       	call   0x402b6b
  4032c5:	85 ff                	test   %edi,%edi
  4032c7:	8b d3                	mov    %ebx,%edx
  4032c9:	74 0a                	je     0x4032d5
  4032cb:	8d 4d d0             	lea    -0x30(%ebp),%ecx
  4032ce:	e8 53 19 00 00       	call   0x404c26
  4032d3:	eb 27                	jmp    0x4032fc
  4032d5:	8d 4d e4             	lea    -0x1c(%ebp),%ecx
  4032d8:	e8 49 19 00 00       	call   0x404c26
  4032dd:	8b 4d d4             	mov    -0x2c(%ebp),%ecx
  4032e0:	8b 45 d0             	mov    -0x30(%ebp),%eax
  4032e3:	89 4d e8             	mov    %ecx,-0x18(%ebp)
  4032e6:	89 4d fc             	mov    %ecx,-0x4(%ebp)
  4032e9:	8d 55 f0             	lea    -0x10(%ebp),%edx
  4032ec:	8d 4d f8             	lea    -0x8(%ebp),%ecx
  4032ef:	89 45 e4             	mov    %eax,-0x1c(%ebp)
  4032f2:	89 45 f8             	mov    %eax,-0x8(%ebp)
  4032f5:	e8 43 fc ff ff       	call   0x402f3d
  4032fa:	8b f8                	mov    %eax,%edi
  4032fc:	85 ff                	test   %edi,%edi
  4032fe:	75 29                	jne    0x403329
  403300:	eb 03                	jmp    0x403305
  403302:	8b 75 d8             	mov    -0x28(%ebp),%esi
  403305:	83 7d f0 01          	cmpl   $0x1,-0x10(%ebp)
  403309:	75 1b                	jne    0x403326
  40330b:	83 7d f4 00          	cmpl   $0x0,-0xc(%ebp)
  40330f:	75 15                	jne    0x403326
  403311:	53                   	push   %ebx
  403312:	8d 55 f8             	lea    -0x8(%ebp),%edx
  403315:	ff 75 08             	push   0x8(%ebp)
  403318:	8b ce                	mov    %esi,%ecx
  40331a:	ff 75 ec             	push   -0x14(%ebp)
  40331d:	e8 c9 0c 00 00       	call   0x403feb
  403322:	8b f8                	mov    %eax,%edi
  403324:	eb 03                	jmp    0x403329
  403326:	6a 04                	push   $0x4
  403328:	5f                   	pop    %edi
  403329:	8b d3                	mov    %ebx,%edx
  40332b:	8d 4d e4             	lea    -0x1c(%ebp),%ecx
  40332e:	e8 f3 18 00 00       	call   0x404c26
  403333:	8b c7                	mov    %edi,%eax
  403335:	eb 07                	jmp    0x40333e
  403337:	6a 06                	push   $0x6
  403339:	eb 02                	jmp    0x40333d
  40333b:	6a 11                	push   $0x11
  40333d:	58                   	pop    %eax
  40333e:	5f                   	pop    %edi
  40333f:	5e                   	pop    %esi
  403340:	5b                   	pop    %ebx
  403341:	c9                   	leave  
  403342:	c2 08 00             	ret    $0x8
  403345:	56                   	push   %esi
  403346:	33 f6                	xor    %esi,%esi
  403348:	81 e9 8c 8b 40 00    	sub    $0x408b8c,%ecx
  40334e:	8a 94 31 8c 8b 40 00 	mov    0x408b8c(%ecx,%esi,1),%dl
  403355:	8d 86 8c 8b 40 00    	lea    0x408b8c(%esi),%eax
  40335b:	3a 10                	cmp    (%eax),%dl
  40335d:	75 0b                	jne    0x40336a
  40335f:	46                   	inc    %esi
  403360:	83 fe 06             	cmp    $0x6,%esi
  403363:	72 e9                	jb     0x40334e
  403365:	6a 01                	push   $0x1
  403367:	58                   	pop    %eax
  403368:	5e                   	pop    %esi
  403369:	c3                   	ret    
  40336a:	33 c0                	xor    %eax,%eax
  40336c:	5e                   	pop    %esi
  40336d:	c3                   	ret    
  40336e:	55                   	push   %ebp
  40336f:	8b ec                	mov    %esp,%ebp
  403371:	83 ec 2c             	sub    $0x2c,%esp
  403374:	53                   	push   %ebx
  403375:	56                   	push   %esi
  403376:	57                   	push   %edi
  403377:	8d 45 d4             	lea    -0x2c(%ebp),%eax
  40337a:	ff 75 1c             	push   0x1c(%ebp)
  40337d:	8b 75 18             	mov    0x18(%ebp),%esi
  403380:	33 ff                	xor    %edi,%edi
  403382:	89 4d fc             	mov    %ecx,-0x4(%ebp)
  403385:	50                   	push   %eax
  403386:	8d 45 f4             	lea    -0xc(%ebp),%eax
  403389:	50                   	push   %eax
  40338a:	57                   	push   %edi
  40338b:	57                   	push   %edi
  40338c:	8b ce                	mov    %esi,%ecx
  40338e:	ff 75 0c             	push   0xc(%ebp)
  403391:	e8 be 00 00 00       	call   0x403454
  403396:	3b c7                	cmp    %edi,%eax
  403398:	0f 85 aa 00 00 00    	jne    0x403448
  40339e:	8b 45 10             	mov    0x10(%ebp),%eax
  4033a1:	8b 4d 14             	mov    0x14(%ebp),%ecx
  4033a4:	01 45 f4             	add    %eax,-0xc(%ebp)
  4033a7:	8b 46 04             	mov    0x4(%esi),%eax
  4033aa:	11 4d f8             	adc    %ecx,-0x8(%ebp)
  4033ad:	3b c7                	cmp    %edi,%eax
  4033af:	75 07                	jne    0x4033b8
  4033b1:	6a 10                	push   $0x10
  4033b3:	e9 99 00 00 00       	jmp    0x403451
  4033b8:	76 13                	jbe    0x4033cd
  4033ba:	8b 5d 08             	mov    0x8(%ebp),%ebx
  4033bd:	8b cb                	mov    %ebx,%ecx
  4033bf:	e8 2b 18 00 00       	call   0x404bef
  4033c4:	47                   	inc    %edi
  4033c5:	83 c3 08             	add    $0x8,%ebx
  4033c8:	3b 7e 04             	cmp    0x4(%esi),%edi
  4033cb:	72 f0                	jb     0x4033bd
  4033cd:	33 ff                	xor    %edi,%edi
  4033cf:	39 7e 04             	cmp    %edi,0x4(%esi)
  4033d2:	76 2f                	jbe    0x403403
  4033d4:	8b 5d 08             	mov    0x8(%ebp),%ebx
  4033d7:	8b d7                	mov    %edi,%edx
  4033d9:	8b ce                	mov    %esi,%ecx
  4033db:	e8 51 fc ff ff       	call   0x403031
  4033e0:	33 c9                	xor    %ecx,%ecx
  4033e2:	3b c0                	cmp    %eax,%eax
  4033e4:	75 69                	jne    0x40344f
  4033e6:	3b ca                	cmp    %edx,%ecx
  4033e8:	75 65                	jne    0x40344f
  4033ea:	ff 75 1c             	push   0x1c(%ebp)
  4033ed:	8b d0                	mov    %eax,%edx
  4033ef:	8b cb                	mov    %ebx,%ecx
  4033f1:	e8 01 18 00 00       	call   0x404bf7
  4033f6:	85 c0                	test   %eax,%eax
  4033f8:	74 55                	je     0x40344f
  4033fa:	47                   	inc    %edi
  4033fb:	83 c3 08             	add    $0x8,%ebx
  4033fe:	3b 7e 04             	cmp    0x4(%esi),%edi
  403401:	72 d4                	jb     0x4033d7
  403403:	33 db                	xor    %ebx,%ebx
  403405:	39 5e 04             	cmp    %ebx,0x4(%esi)
  403408:	76 3c                	jbe    0x403446
  40340a:	8b 7d 08             	mov    0x8(%ebp),%edi
  40340d:	ff 75 f8             	push   -0x8(%ebp)
  403410:	8b 4d fc             	mov    -0x4(%ebp),%ecx
  403413:	ff 75 f4             	push   -0xc(%ebp)
  403416:	e8 cb 20 00 00       	call   0x4054e6
  40341b:	85 c0                	test   %eax,%eax
  40341d:	75 29                	jne    0x403448
  40341f:	ff 75 1c             	push   0x1c(%ebp)
  403422:	8b d3                	mov    %ebx,%edx
  403424:	8b ce                	mov    %esi,%ecx
  403426:	ff 77 04             	push   0x4(%edi)
  403429:	ff 37                	push   (%edi)
  40342b:	ff 75 f8             	push   -0x8(%ebp)
  40342e:	ff 75 f4             	push   -0xc(%ebp)
  403431:	ff 75 fc             	push   -0x4(%ebp)
  403434:	e8 fd 19 00 00       	call   0x404e36
  403439:	85 c0                	test   %eax,%eax
  40343b:	75 0b                	jne    0x403448
  40343d:	43                   	inc    %ebx
  40343e:	83 c7 08             	add    $0x8,%edi
  403441:	3b 5e 04             	cmp    0x4(%esi),%ebx
  403444:	72 c7                	jb     0x40340d
  403446:	33 c0                	xor    %eax,%eax
  403448:	5f                   	pop    %edi
  403449:	5e                   	pop    %esi
  40344a:	5b                   	pop    %ebx
  40344b:	c9                   	leave  
  40344c:	c2 18 00             	ret    $0x18
  40344f:	6a 02                	push   $0x2
  403451:	58                   	pop    %eax
  403452:	eb f4                	jmp    0x403448
  403454:	55                   	push   %ebp
  403455:	8b ec                	mov    %esp,%ebp
  403457:	83 ec 0c             	sub    $0xc,%esp
  40345a:	53                   	push   %ebx
  40345b:	56                   	push   %esi
  40345c:	8b 75 18             	mov    0x18(%ebp),%esi
  40345f:	57                   	push   %edi
  403460:	8b 7d 14             	mov    0x14(%ebp),%edi
  403463:	33 c0                	xor    %eax,%eax
  403465:	89 55 fc             	mov    %edx,-0x4(%ebp)
  403468:	8b d9                	mov    %ecx,%ebx
  40346a:	8b 4d fc             	mov    -0x4(%ebp),%ecx
  40346d:	89 46 10             	mov    %eax,0x10(%esi)
  403470:	89 46 14             	mov    %eax,0x14(%esi)
  403473:	89 46 18             	mov    %eax,0x18(%esi)
  403476:	89 46 1c             	mov    %eax,0x1c(%esi)
  403479:	89 46 08             	mov    %eax,0x8(%esi)
  40347c:	89 46 0c             	mov    %eax,0xc(%esi)
  40347f:	89 07                	mov    %eax,(%edi)
  403481:	8d 55 f4             	lea    -0xc(%ebp),%edx
  403484:	89 47 04             	mov    %eax,0x4(%edi)
  403487:	e8 b1 fa ff ff       	call   0x402f3d
  40348c:	85 c0                	test   %eax,%eax
  40348e:	0f 85 f0 00 00 00    	jne    0x403584
  403494:	83 7d f4 06          	cmpl   $0x6,-0xc(%ebp)
  403498:	75 75                	jne    0x40350f
  40349a:	39 45 f8             	cmp    %eax,-0x8(%ebp)
  40349d:	75 70                	jne    0x40350f
  40349f:	8b 4d fc             	mov    -0x4(%ebp),%ecx
  4034a2:	8b d7                	mov    %edi,%edx
  4034a4:	e8 94 fa ff ff       	call   0x402f3d
  4034a9:	85 c0                	test   %eax,%eax
  4034ab:	0f 85 d3 00 00 00    	jne    0x403584
  4034b1:	8b 47 04             	mov    0x4(%edi),%eax
  4034b4:	3b 43 34             	cmp    0x34(%ebx),%eax
  4034b7:	72 09                	jb     0x4034c2
  4034b9:	77 3e                	ja     0x4034f9
  4034bb:	8b 07                	mov    (%edi),%eax
  4034bd:	3b 43 30             	cmp    0x30(%ebx),%eax
  4034c0:	77 37                	ja     0x4034f9
  4034c2:	ff 75 1c             	push   0x1c(%ebp)
  4034c5:	8b 55 fc             	mov    -0x4(%ebp),%edx
  4034c8:	8b cb                	mov    %ebx,%ecx
  4034ca:	e8 bc 00 00 00       	call   0x40358b
  4034cf:	85 c0                	test   %eax,%eax
  4034d1:	0f 85 ad 00 00 00    	jne    0x403584
  4034d7:	8b 03                	mov    (%ebx),%eax
  4034d9:	8b 4b 08             	mov    0x8(%ebx),%ecx
  4034dc:	8d 14 c1             	lea    (%ecx,%eax,8),%edx
  4034df:	8b 4b 30             	mov    0x30(%ebx),%ecx
  4034e2:	2b 0f                	sub    (%edi),%ecx
  4034e4:	8b 43 34             	mov    0x34(%ebx),%eax
  4034e7:	1b 47 04             	sbb    0x4(%edi),%eax
  4034ea:	8b 7a 04             	mov    0x4(%edx),%edi
  4034ed:	3b f8                	cmp    %eax,%edi
  4034ef:	72 0f                	jb     0x403500
  4034f1:	77 06                	ja     0x4034f9
  4034f3:	8b 02                	mov    (%edx),%eax
  4034f5:	3b c1                	cmp    %ecx,%eax
  4034f7:	76 07                	jbe    0x403500
  4034f9:	6a 10                	push   $0x10
  4034fb:	e9 83 00 00 00       	jmp    0x403583
  403500:	8b 4d fc             	mov    -0x4(%ebp),%ecx
  403503:	8d 55 f4             	lea    -0xc(%ebp),%edx
  403506:	e8 32 fa ff ff       	call   0x402f3d
  40350b:	85 c0                	test   %eax,%eax
  40350d:	75 75                	jne    0x403584
  40350f:	83 7d f4 07          	cmpl   $0x7,-0xc(%ebp)
  403513:	75 2f                	jne    0x403544
  403515:	83 7d f8 00          	cmpl   $0x0,-0x8(%ebp)
  403519:	75 29                	jne    0x403544
  40351b:	ff 75 1c             	push   0x1c(%ebp)
  40351e:	8b 55 fc             	mov    -0x4(%ebp),%edx
  403521:	8b cb                	mov    %ebx,%ecx
  403523:	ff 75 10             	push   0x10(%ebp)
  403526:	ff 75 0c             	push   0xc(%ebp)
  403529:	ff 75 08             	push   0x8(%ebp)
  40352c:	e8 5b 02 00 00       	call   0x40378c
  403531:	85 c0                	test   %eax,%eax
  403533:	75 4f                	jne    0x403584
  403535:	8b 4d fc             	mov    -0x4(%ebp),%ecx
  403538:	8d 55 f4             	lea    -0xc(%ebp),%edx
  40353b:	e8 fd f9 ff ff       	call   0x402f3d
  403540:	85 c0                	test   %eax,%eax
  403542:	75 40                	jne    0x403584
  403544:	83 7d f4 08          	cmpl   $0x8,-0xc(%ebp)
  403548:	75 26                	jne    0x403570
  40354a:	83 7d f8 00          	cmpl   $0x0,-0x8(%ebp)
  40354e:	75 20                	jne    0x403570
  403550:	8b 55 fc             	mov    -0x4(%ebp),%edx
  403553:	56                   	push   %esi
  403554:	8b cb                	mov    %ebx,%ecx
  403556:	e8 75 08 00 00       	call   0x403dd0
  40355b:	85 c0                	test   %eax,%eax
  40355d:	75 25                	jne    0x403584
  40355f:	8b 4d fc             	mov    -0x4(%ebp),%ecx
  403562:	8d 55 f4             	lea    -0xc(%ebp),%edx
  403565:	e8 d3 f9 ff ff       	call   0x402f3d
  40356a:	85 c0                	test   %eax,%eax
  40356c:	74 07                	je     0x403575
  40356e:	eb 14                	jmp    0x403584
  403570:	8b 43 04             	mov    0x4(%ebx),%eax
  403573:	89 06                	mov    %eax,(%esi)
  403575:	8b 45 f4             	mov    -0xc(%ebp),%eax
  403578:	0b 45 f8             	or     -0x8(%ebp),%eax
  40357b:	75 04                	jne    0x403581
  40357d:	33 c0                	xor    %eax,%eax
  40357f:	eb 03                	jmp    0x403584
  403581:	6a 04                	push   $0x4
  403583:	58                   	pop    %eax
  403584:	5f                   	pop    %edi
  403585:	5e                   	pop    %esi
  403586:	5b                   	pop    %ebx
  403587:	c9                   	leave  
  403588:	c2 18 00             	ret    $0x18
  40358b:	55                   	push   %ebp
  40358c:	8b ec                	mov    %esp,%ebp
  40358e:	83 ec 14             	sub    $0x14,%esp
  403591:	53                   	push   %ebx
  403592:	56                   	push   %esi
  403593:	57                   	push   %edi
  403594:	89 55 fc             	mov    %edx,-0x4(%ebp)
  403597:	8b f9                	mov    %ecx,%edi
  403599:	8b 4d fc             	mov    -0x4(%ebp),%ecx
  40359c:	8b d7                	mov    %edi,%edx
  40359e:	e8 40 f9 ff ff       	call   0x402ee3
  4035a3:	33 f6                	xor    %esi,%esi
  4035a5:	3b c6                	cmp    %esi,%eax
  4035a7:	0f 85 cb 00 00 00    	jne    0x403678
  4035ad:	8b 4d fc             	mov    -0x4(%ebp),%ecx
  4035b0:	6a 09                	push   $0x9
  4035b2:	5a                   	pop    %edx
  4035b3:	e8 01 01 00 00       	call   0x4036b9
  4035b8:	3b c6                	cmp    %esi,%eax
  4035ba:	0f 85 b8 00 00 00    	jne    0x403678
  4035c0:	8b 07                	mov    (%edi),%eax
  4035c2:	8b 4d 08             	mov    0x8(%ebp),%ecx
  4035c5:	8d 14 c5 08 00 00 00 	lea    0x8(,%eax,8),%edx
  4035cc:	ff 11                	call   *(%ecx)
  4035ce:	3b c6                	cmp    %esi,%eax
  4035d0:	89 47 08             	mov    %eax,0x8(%edi)
  4035d3:	75 08                	jne    0x4035dd
  4035d5:	6a 02                	push   $0x2
  4035d7:	58                   	pop    %eax
  4035d8:	e9 9b 00 00 00       	jmp    0x403678
  4035dd:	8b 07                	mov    (%edi),%eax
  4035df:	33 db                	xor    %ebx,%ebx
  4035e1:	85 c0                	test   %eax,%eax
  4035e3:	89 75 f8             	mov    %esi,-0x8(%ebp)
  4035e6:	89 45 08             	mov    %eax,0x8(%ebp)
  4035e9:	76 37                	jbe    0x403622
  4035eb:	8b 47 08             	mov    0x8(%edi),%eax
  4035ee:	8b 4d f8             	mov    -0x8(%ebp),%ecx
  4035f1:	8d 55 ec             	lea    -0x14(%ebp),%edx
  4035f4:	89 1c f0             	mov    %ebx,(%eax,%esi,8)
  4035f7:	89 4c f0 04          	mov    %ecx,0x4(%eax,%esi,8)
  4035fb:	8b 4d fc             	mov    -0x4(%ebp),%ecx
  4035fe:	e8 3a f9 ff ff       	call   0x402f3d
  403603:	85 c0                	test   %eax,%eax
  403605:	75 71                	jne    0x403678
  403607:	03 5d ec             	add    -0x14(%ebp),%ebx
  40360a:	8b 45 f0             	mov    -0x10(%ebp),%eax
  40360d:	11 45 f8             	adc    %eax,-0x8(%ebp)
  403610:	39 45 f8             	cmp    %eax,-0x8(%ebp)
  403613:	72 4a                	jb     0x40365f
  403615:	77 05                	ja     0x40361c
  403617:	3b 5d ec             	cmp    -0x14(%ebp),%ebx
  40361a:	72 43                	jb     0x40365f
  40361c:	46                   	inc    %esi
  40361d:	3b 75 08             	cmp    0x8(%ebp),%esi
  403620:	72 c9                	jb     0x4035eb
  403622:	8b 47 08             	mov    0x8(%edi),%eax
  403625:	8b 4d f8             	mov    -0x8(%ebp),%ecx
  403628:	8d 55 f4             	lea    -0xc(%ebp),%edx
  40362b:	89 1c f0             	mov    %ebx,(%eax,%esi,8)
  40362e:	89 4c f0 04          	mov    %ecx,0x4(%eax,%esi,8)
  403632:	8b 75 fc             	mov    -0x4(%ebp),%esi
  403635:	8b ce                	mov    %esi,%ecx
  403637:	e8 01 f9 ff ff       	call   0x402f3d
  40363c:	85 c0                	test   %eax,%eax
  40363e:	75 38                	jne    0x403678
  403640:	8b 45 f4             	mov    -0xc(%ebp),%eax
  403643:	0b 45 f8             	or     -0x8(%ebp),%eax
  403646:	74 2e                	je     0x403676
  403648:	83 7d f4 0a          	cmpl   $0xa,-0xc(%ebp)
  40364c:	75 18                	jne    0x403666
  40364e:	83 7d f8 00          	cmpl   $0x0,-0x8(%ebp)
  403652:	75 12                	jne    0x403666
  403654:	8b 17                	mov    (%edi),%edx
  403656:	8b ce                	mov    %esi,%ecx
  403658:	e8 ae 00 00 00       	call   0x40370b
  40365d:	eb 0e                	jmp    0x40366d
  40365f:	6a 10                	push   $0x10
  403661:	e9 71 ff ff ff       	jmp    0x4035d7
  403666:	8b ce                	mov    %esi,%ecx
  403668:	e8 12 00 00 00       	call   0x40367f
  40366d:	85 c0                	test   %eax,%eax
  40366f:	75 07                	jne    0x403678
  403671:	8d 55 f4             	lea    -0xc(%ebp),%edx
  403674:	eb bf                	jmp    0x403635
  403676:	33 c0                	xor    %eax,%eax
  403678:	5f                   	pop    %edi
  403679:	5e                   	pop    %esi
  40367a:	5b                   	pop    %ebx
  40367b:	c9                   	leave  
  40367c:	c2 04 00             	ret    $0x4
  40367f:	55                   	push   %ebp
  403680:	8b ec                	mov    %esp,%ebp
  403682:	51                   	push   %ecx
  403683:	51                   	push   %ecx
  403684:	56                   	push   %esi
  403685:	8b f1                	mov    %ecx,%esi
  403687:	8d 55 f8             	lea    -0x8(%ebp),%edx
  40368a:	e8 ae f8 ff ff       	call   0x402f3d
  40368f:	85 c0                	test   %eax,%eax
  403691:	75 23                	jne    0x4036b6
  403693:	8b 55 fc             	mov    -0x4(%ebp),%edx
  403696:	8b 46 04             	mov    0x4(%esi),%eax
  403699:	33 c9                	xor    %ecx,%ecx
  40369b:	3b d1                	cmp    %ecx,%edx
  40369d:	8b 4d f8             	mov    -0x8(%ebp),%ecx
  4036a0:	72 0b                	jb     0x4036ad
  4036a2:	77 04                	ja     0x4036a8
  4036a4:	3b c8                	cmp    %eax,%ecx
  4036a6:	76 05                	jbe    0x4036ad
  4036a8:	6a 10                	push   $0x10
  4036aa:	58                   	pop    %eax
  4036ab:	eb 09                	jmp    0x4036b6
  4036ad:	01 0e                	add    %ecx,(%esi)
  4036af:	2b c1                	sub    %ecx,%eax
  4036b1:	89 46 04             	mov    %eax,0x4(%esi)
  4036b4:	33 c0                	xor    %eax,%eax
  4036b6:	5e                   	pop    %esi
  4036b7:	c9                   	leave  
  4036b8:	c3                   	ret    
  4036b9:	55                   	push   %ebp
  4036ba:	8b ec                	mov    %esp,%ebp
  4036bc:	51                   	push   %ecx
  4036bd:	51                   	push   %ecx
  4036be:	53                   	push   %ebx
  4036bf:	56                   	push   %esi
  4036c0:	57                   	push   %edi
  4036c1:	8b fa                	mov    %edx,%edi
  4036c3:	8b f1                	mov    %ecx,%esi
  4036c5:	8d 55 f8             	lea    -0x8(%ebp),%edx
  4036c8:	e8 70 f8 ff ff       	call   0x402f3d
  4036cd:	85 c0                	test   %eax,%eax
  4036cf:	75 35                	jne    0x403706
  4036d1:	33 db                	xor    %ebx,%ebx
  4036d3:	8b 45 f8             	mov    -0x8(%ebp),%eax
  4036d6:	3b c7                	cmp    %edi,%eax
  4036d8:	75 05                	jne    0x4036df
  4036da:	39 5d fc             	cmp    %ebx,-0x4(%ebp)
  4036dd:	74 20                	je     0x4036ff
  4036df:	0b 45 fc             	or     -0x4(%ebp),%eax
  4036e2:	74 1f                	je     0x403703
  4036e4:	8b ce                	mov    %esi,%ecx
  4036e6:	e8 94 ff ff ff       	call   0x40367f
  4036eb:	85 c0                	test   %eax,%eax
  4036ed:	75 17                	jne    0x403706
  4036ef:	8d 55 f8             	lea    -0x8(%ebp),%edx
  4036f2:	8b ce                	mov    %esi,%ecx
  4036f4:	e8 44 f8 ff ff       	call   0x402f3d
  4036f9:	85 c0                	test   %eax,%eax
  4036fb:	74 d6                	je     0x4036d3
  4036fd:	eb 07                	jmp    0x403706
  4036ff:	33 c0                	xor    %eax,%eax
  403701:	eb 03                	jmp    0x403706
  403703:	6a 10                	push   $0x10
  403705:	58                   	pop    %eax
  403706:	5f                   	pop    %edi
  403707:	5e                   	pop    %esi
  403708:	5b                   	pop    %ebx
  403709:	c9                   	leave  
  40370a:	c3                   	ret    
  40370b:	53                   	push   %ebx
  40370c:	56                   	push   %esi
  40370d:	8b f1                	mov    %ecx,%esi
  40370f:	57                   	push   %edi
  403710:	8b 4e 04             	mov    0x4(%esi),%ecx
  403713:	85 c9                	test   %ecx,%ecx
  403715:	74 33                	je     0x40374a
  403717:	8d 59 ff             	lea    -0x1(%ecx),%ebx
  40371a:	8b 0e                	mov    (%esi),%ecx
  40371c:	89 5e 04             	mov    %ebx,0x4(%esi)
  40371f:	8a 01                	mov    (%ecx),%al
  403721:	41                   	inc    %ecx
  403722:	84 c0                	test   %al,%al
  403724:	89 0e                	mov    %ecx,(%esi)
  403726:	75 16                	jne    0x40373e
  403728:	8d 7a 07             	lea    0x7(%edx),%edi
  40372b:	c1 ef 03             	shr    $0x3,%edi
  40372e:	3b fb                	cmp    %ebx,%edi
  403730:	77 18                	ja     0x40374a
  403732:	e8 2a 00 00 00       	call   0x403761
  403737:	29 7e 04             	sub    %edi,0x4(%esi)
  40373a:	01 3e                	add    %edi,(%esi)
  40373c:	8b d0                	mov    %eax,%edx
  40373e:	8b 4e 04             	mov    0x4(%esi),%ecx
  403741:	8b c1                	mov    %ecx,%eax
  403743:	c1 e8 02             	shr    $0x2,%eax
  403746:	3b d0                	cmp    %eax,%edx
  403748:	76 05                	jbe    0x40374f
  40374a:	6a 10                	push   $0x10
  40374c:	58                   	pop    %eax
  40374d:	eb 0e                	jmp    0x40375d
  40374f:	8b c2                	mov    %edx,%eax
  403751:	c1 e0 02             	shl    $0x2,%eax
  403754:	01 06                	add    %eax,(%esi)
  403756:	2b c8                	sub    %eax,%ecx
  403758:	89 4e 04             	mov    %ecx,0x4(%esi)
  40375b:	33 c0                	xor    %eax,%eax
  40375d:	5f                   	pop    %edi
  40375e:	5e                   	pop    %esi
  40375f:	5b                   	pop    %ebx
  403760:	c3                   	ret    
  403761:	56                   	push   %esi
  403762:	57                   	push   %edi
  403763:	8b f9                	mov    %ecx,%edi
  403765:	33 f6                	xor    %esi,%esi
  403767:	33 c9                	xor    %ecx,%ecx
  403769:	33 c0                	xor    %eax,%eax
  40376b:	85 d2                	test   %edx,%edx
  40376d:	74 1a                	je     0x403789
  40376f:	53                   	push   %ebx
  403770:	85 c9                	test   %ecx,%ecx
  403772:	75 07                	jne    0x40377b
  403774:	0f b6 37             	movzbl (%edi),%esi
  403777:	6a 08                	push   $0x8
  403779:	47                   	inc    %edi
  40377a:	59                   	pop    %ecx
  40377b:	49                   	dec    %ecx
  40377c:	8b de                	mov    %esi,%ebx
  40377e:	d3 eb                	shr    %cl,%ebx
  403780:	83 e3 01             	and    $0x1,%ebx
  403783:	03 c3                	add    %ebx,%eax
  403785:	4a                   	dec    %edx
  403786:	75 e8                	jne    0x403770
  403788:	5b                   	pop    %ebx
  403789:	5f                   	pop    %edi
  40378a:	5e                   	pop    %esi
  40378b:	c3                   	ret    
  40378c:	55                   	push   %ebp
  40378d:	8b ec                	mov    %esp,%ebp
  40378f:	81 ec bc 00 00 00    	sub    $0xbc,%esp
  403795:	53                   	push   %ebx
  403796:	56                   	push   %esi
  403797:	57                   	push   %edi
  403798:	8b fa                	mov    %edx,%edi
  40379a:	8b f1                	mov    %ecx,%esi
  40379c:	6a 0b                	push   $0xb
  40379e:	5a                   	pop    %edx
  40379f:	8b cf                	mov    %edi,%ecx
  4037a1:	89 7d cc             	mov    %edi,-0x34(%ebp)
  4037a4:	e8 10 ff ff ff       	call   0x4036b9
  4037a9:	85 c0                	test   %eax,%eax
  4037ab:	0f 85 96 04 00 00    	jne    0x403c47
  4037b1:	8d 55 f4             	lea    -0xc(%ebp),%edx
  4037b4:	8b cf                	mov    %edi,%ecx
  4037b6:	e8 28 f7 ff ff       	call   0x402ee3
  4037bb:	85 c0                	test   %eax,%eax
  4037bd:	0f 85 84 04 00 00    	jne    0x403c47
  4037c3:	8b 4d f4             	mov    -0xc(%ebp),%ecx
  4037c6:	3b 4d 08             	cmp    0x8(%ebp),%ecx
  4037c9:	76 08                	jbe    0x4037d3
  4037cb:	6a 04                	push   $0x4
  4037cd:	58                   	pop    %eax
  4037ce:	e9 74 04 00 00       	jmp    0x403c47
  4037d3:	89 4e 04             	mov    %ecx,0x4(%esi)
  4037d6:	8b 47 04             	mov    0x4(%edi),%eax
  4037d9:	85 c0                	test   %eax,%eax
  4037db:	0f 84 ab 03 00 00    	je     0x403b8c
  4037e1:	48                   	dec    %eax
  4037e2:	89 47 04             	mov    %eax,0x4(%edi)
  4037e5:	8b 07                	mov    (%edi),%eax
  4037e7:	8a 10                	mov    (%eax),%dl
  4037e9:	40                   	inc    %eax
  4037ea:	84 d2                	test   %dl,%dl
  4037ec:	88 55 0b             	mov    %dl,0xb(%ebp)
  4037ef:	89 07                	mov    %eax,(%edi)
  4037f1:	75 0b                	jne    0x4037fe
  4037f3:	89 45 f8             	mov    %eax,-0x8(%ebp)
  4037f6:	8b 47 04             	mov    0x4(%edi),%eax
  4037f9:	89 45 fc             	mov    %eax,-0x4(%ebp)
  4037fc:	eb 32                	jmp    0x403830
  4037fe:	8d 55 e8             	lea    -0x18(%ebp),%edx
  403801:	8b cf                	mov    %edi,%ecx
  403803:	e8 db f6 ff ff       	call   0x402ee3
  403808:	85 c0                	test   %eax,%eax
  40380a:	0f 85 37 04 00 00    	jne    0x403c47
  403810:	8b 45 e8             	mov    -0x18(%ebp),%eax
  403813:	3b 45 10             	cmp    0x10(%ebp),%eax
  403816:	0f 83 70 03 00 00    	jae    0x403b8c
  40381c:	8b 4d 0c             	mov    0xc(%ebp),%ecx
  40381f:	8d 04 c1             	lea    (%ecx,%eax,8),%eax
  403822:	8b 08                	mov    (%eax),%ecx
  403824:	89 4d f8             	mov    %ecx,-0x8(%ebp)
  403827:	8b 40 04             	mov    0x4(%eax),%eax
  40382a:	8b 4d f4             	mov    -0xc(%ebp),%ecx
  40382d:	89 45 fc             	mov    %eax,-0x4(%ebp)
  403830:	8b 5d 14             	mov    0x14(%ebp),%ebx
  403833:	8d 14 8d 04 00 00 00 	lea    0x4(,%ecx,4),%edx
  40383a:	8b cb                	mov    %ebx,%ecx
  40383c:	ff 13                	call   *(%ebx)
  40383e:	33 ff                	xor    %edi,%edi
  403840:	89 46 14             	mov    %eax,0x14(%esi)
  403843:	3b c7                	cmp    %edi,%eax
  403845:	0f 84 db 03 00 00    	je     0x403c26
  40384b:	8b 45 f4             	mov    -0xc(%ebp),%eax
  40384e:	8b cb                	mov    %ebx,%ecx
  403850:	8d 14 85 04 00 00 00 	lea    0x4(,%eax,4),%edx
  403857:	ff 13                	call   *(%ebx)
  403859:	3b c7                	cmp    %edi,%eax
  40385b:	89 46 18             	mov    %eax,0x18(%esi)
  40385e:	0f 84 c2 03 00 00    	je     0x403c26
  403864:	8b 45 f4             	mov    -0xc(%ebp),%eax
  403867:	8b cb                	mov    %ebx,%ecx
  403869:	8d 14 85 04 00 00 00 	lea    0x4(,%eax,4),%edx
  403870:	ff 13                	call   *(%ebx)
  403872:	3b c7                	cmp    %edi,%eax
  403874:	89 46 1c             	mov    %eax,0x1c(%esi)
  403877:	0f 84 a9 03 00 00    	je     0x403c26
  40387d:	8b 55 f4             	mov    -0xc(%ebp),%edx
  403880:	3b d7                	cmp    %edi,%edx
  403882:	75 05                	jne    0x403889
  403884:	89 7e 20             	mov    %edi,0x20(%esi)
  403887:	eb 0f                	jmp    0x403898
  403889:	8b cb                	mov    %ebx,%ecx
  40388b:	ff 13                	call   *(%ebx)
  40388d:	3b c7                	cmp    %edi,%eax
  40388f:	89 46 20             	mov    %eax,0x20(%esi)
  403892:	0f 84 8e 03 00 00    	je     0x403c26
  403898:	8b 45 f8             	mov    -0x8(%ebp),%eax
  40389b:	39 7d f4             	cmp    %edi,-0xc(%ebp)
  40389e:	89 45 dc             	mov    %eax,-0x24(%ebp)
  4038a1:	89 7d ec             	mov    %edi,-0x14(%ebp)
  4038a4:	89 7d 0c             	mov    %edi,0xc(%ebp)
  4038a7:	89 7d e4             	mov    %edi,-0x1c(%ebp)
  4038aa:	0f 86 86 02 00 00    	jbe    0x403b36
  4038b0:	eb 03                	jmp    0x4038b5
  4038b2:	8b 45 f8             	mov    -0x8(%ebp),%eax
  4038b5:	2b 45 dc             	sub    -0x24(%ebp),%eax
  4038b8:	8b 4e 14             	mov    0x14(%esi),%ecx
  4038bb:	8b 55 e4             	mov    -0x1c(%ebp),%edx
  4038be:	33 ff                	xor    %edi,%edi
  4038c0:	89 7d f0             	mov    %edi,-0x10(%ebp)
  4038c3:	89 04 91             	mov    %eax,(%ecx,%edx,4)
  4038c6:	8d 55 10             	lea    0x10(%ebp),%edx
  4038c9:	8d 4d f8             	lea    -0x8(%ebp),%ecx
  4038cc:	e8 12 f6 ff ff       	call   0x402ee3
  4038d1:	3b c7                	cmp    %edi,%eax
  4038d3:	0f 85 6e 03 00 00    	jne    0x403c47
  4038d9:	8b 5d 10             	mov    0x10(%ebp),%ebx
  4038dc:	3b df                	cmp    %edi,%ebx
  4038de:	0f 84 e7 fe ff ff    	je     0x4037cb
  4038e4:	83 fb 40             	cmp    $0x40,%ebx
  4038e7:	0f 87 de fe ff ff    	ja     0x4037cb
  4038ed:	85 db                	test   %ebx,%ebx
  4038ef:	0f 86 bd 00 00 00    	jbe    0x4039b2
  4038f5:	83 7d fc 00          	cmpl   $0x0,-0x4(%ebp)
  4038f9:	0f 84 8d 02 00 00    	je     0x403b8c
  4038ff:	8b 45 f8             	mov    -0x8(%ebp),%eax
  403902:	ff 4d fc             	decl   -0x4(%ebp)
  403905:	8a 18                	mov    (%eax),%bl
  403907:	ff 45 f8             	incl   -0x8(%ebp)
  40390a:	f6 c3 c0             	test   $0xc0,%bl
  40390d:	0f 85 b8 fe ff ff    	jne    0x4037cb
  403913:	8a c3                	mov    %bl,%al
  403915:	83 e0 0f             	and    $0xf,%eax
  403918:	83 f8 08             	cmp    $0x8,%eax
  40391b:	0f 87 aa fe ff ff    	ja     0x4037cb
  403921:	3b 45 fc             	cmp    -0x4(%ebp),%eax
  403924:	0f 87 62 02 00 00    	ja     0x403b8c
  40392a:	29 45 fc             	sub    %eax,-0x4(%ebp)
  40392d:	01 45 f8             	add    %eax,-0x8(%ebp)
  403930:	f6 c3 10             	test   $0x10,%bl
  403933:	c7 45 e0 01 00 00 00 	movl   $0x1,-0x20(%ebp)
  40393a:	74 3a                	je     0x403976
  40393c:	8d 55 e0             	lea    -0x20(%ebp),%edx
  40393f:	8d 4d f8             	lea    -0x8(%ebp),%ecx
  403942:	e8 9c f5 ff ff       	call   0x402ee3
  403947:	85 c0                	test   %eax,%eax
  403949:	0f 85 f8 02 00 00    	jne    0x403c47
  40394f:	8d 55 c8             	lea    -0x38(%ebp),%edx
  403952:	8d 4d f8             	lea    -0x8(%ebp),%ecx
  403955:	e8 89 f5 ff ff       	call   0x402ee3
  40395a:	85 c0                	test   %eax,%eax
  40395c:	0f 85 e5 02 00 00    	jne    0x403c47
  403962:	83 7d e0 40          	cmpl   $0x40,-0x20(%ebp)
  403966:	0f 87 5f fe ff ff    	ja     0x4037cb
  40396c:	83 7d c8 01          	cmpl   $0x1,-0x38(%ebp)
  403970:	0f 85 55 fe ff ff    	jne    0x4037cb
  403976:	8b 45 e0             	mov    -0x20(%ebp),%eax
  403979:	01 45 f0             	add    %eax,-0x10(%ebp)
  40397c:	f6 c3 20             	test   $0x20,%bl
  40397f:	74 25                	je     0x4039a6
  403981:	8d 55 c4             	lea    -0x3c(%ebp),%edx
  403984:	8d 4d f8             	lea    -0x8(%ebp),%ecx
  403987:	e8 57 f5 ff ff       	call   0x402ee3
  40398c:	85 c0                	test   %eax,%eax
  40398e:	0f 85 b3 02 00 00    	jne    0x403c47
  403994:	8b 45 c4             	mov    -0x3c(%ebp),%eax
  403997:	3b 45 fc             	cmp    -0x4(%ebp),%eax
  40399a:	0f 87 ec 01 00 00    	ja     0x403b8c
  4039a0:	29 45 fc             	sub    %eax,-0x4(%ebp)
  4039a3:	01 45 f8             	add    %eax,-0x8(%ebp)
  4039a6:	8b 5d 10             	mov    0x10(%ebp),%ebx
  4039a9:	47                   	inc    %edi
  4039aa:	3b fb                	cmp    %ebx,%edi
  4039ac:	0f 82 43 ff ff ff    	jb     0x4038f5
  4039b2:	83 65 e8 00          	andl   $0x0,-0x18(%ebp)
  4039b6:	6a 01                	push   $0x1
  4039b8:	5f                   	pop    %edi
  4039b9:	3b df                	cmp    %edi,%ebx
  4039bb:	75 09                	jne    0x4039c6
  4039bd:	39 7d f0             	cmp    %edi,-0x10(%ebp)
  4039c0:	0f 84 27 01 00 00    	je     0x403aed
  4039c6:	8b 4d f0             	mov    -0x10(%ebp),%ecx
  4039c9:	4b                   	dec    %ebx
  4039ca:	3b cb                	cmp    %ebx,%ecx
  4039cc:	0f 82 ba 01 00 00    	jb     0x403b8c
  4039d2:	83 f9 40             	cmp    $0x40,%ecx
  4039d5:	0f 87 f0 fd ff ff    	ja     0x4037cb
  4039db:	85 c9                	test   %ecx,%ecx
  4039dd:	76 13                	jbe    0x4039f2
  4039df:	8b d1                	mov    %ecx,%edx
  4039e1:	33 c0                	xor    %eax,%eax
  4039e3:	8d 7d 84             	lea    -0x7c(%ebp),%edi
  4039e6:	c1 e9 02             	shr    $0x2,%ecx
  4039e9:	f3 ab                	rep stos %eax,%es:(%edi)
  4039eb:	8b ca                	mov    %edx,%ecx
  4039ed:	83 e1 03             	and    $0x3,%ecx
  4039f0:	f3 aa                	rep stos %al,%es:(%edi)
  4039f2:	8b 4d 10             	mov    0x10(%ebp),%ecx
  4039f5:	85 c9                	test   %ecx,%ecx
  4039f7:	76 16                	jbe    0x403a0f
  4039f9:	8b d1                	mov    %ecx,%edx
  4039fb:	33 c0                	xor    %eax,%eax
  4039fd:	8d bd 44 ff ff ff    	lea    -0xbc(%ebp),%edi
  403a03:	c1 e9 02             	shr    $0x2,%ecx
  403a06:	f3 ab                	rep stos %eax,%es:(%edi)
  403a08:	8b ca                	mov    %edx,%ecx
  403a0a:	83 e1 03             	and    $0x3,%ecx
  403a0d:	f3 aa                	rep stos %al,%es:(%edi)
  403a0f:	33 ff                	xor    %edi,%edi
  403a11:	85 db                	test   %ebx,%ebx
  403a13:	76 6d                	jbe    0x403a82
  403a15:	8d 55 d0             	lea    -0x30(%ebp),%edx
  403a18:	8d 4d f8             	lea    -0x8(%ebp),%ecx
  403a1b:	e8 c3 f4 ff ff       	call   0x402ee3
  403a20:	85 c0                	test   %eax,%eax
  403a22:	0f 85 1f 02 00 00    	jne    0x403c47
  403a28:	8b 45 d0             	mov    -0x30(%ebp),%eax
  403a2b:	3b 45 f0             	cmp    -0x10(%ebp),%eax
  403a2e:	0f 83 58 01 00 00    	jae    0x403b8c
  403a34:	80 7c 05 84 00       	cmpb   $0x0,-0x7c(%ebp,%eax,1)
  403a39:	8d 44 05 84          	lea    -0x7c(%ebp,%eax,1),%eax
  403a3d:	0f 85 49 01 00 00    	jne    0x403b8c
  403a43:	8d 55 d0             	lea    -0x30(%ebp),%edx
  403a46:	8d 4d f8             	lea    -0x8(%ebp),%ecx
  403a49:	c6 00 01             	movb   $0x1,(%eax)
  403a4c:	e8 92 f4 ff ff       	call   0x402ee3
  403a51:	85 c0                	test   %eax,%eax
  403a53:	0f 85 ee 01 00 00    	jne    0x403c47
  403a59:	8b 45 d0             	mov    -0x30(%ebp),%eax
  403a5c:	3b 45 10             	cmp    0x10(%ebp),%eax
  403a5f:	0f 83 27 01 00 00    	jae    0x403b8c
  403a65:	80 bc 05 44 ff ff ff 	cmpb   $0x0,-0xbc(%ebp,%eax,1)
  403a6c:	00 
  403a6d:	8d 84 05 44 ff ff ff 	lea    -0xbc(%ebp,%eax,1),%eax
  403a74:	0f 85 12 01 00 00    	jne    0x403b8c
  403a7a:	47                   	inc    %edi
  403a7b:	c6 00 01             	movb   $0x1,(%eax)
  403a7e:	3b fb                	cmp    %ebx,%edi
  403a80:	72 93                	jb     0x403a15
  403a82:	8b 7d f0             	mov    -0x10(%ebp),%edi
  403a85:	2b fb                	sub    %ebx,%edi
  403a87:	83 ff 01             	cmp    $0x1,%edi
  403a8a:	74 3c                	je     0x403ac8
  403a8c:	33 db                	xor    %ebx,%ebx
  403a8e:	85 ff                	test   %edi,%edi
  403a90:	76 36                	jbe    0x403ac8
  403a92:	8d 55 d8             	lea    -0x28(%ebp),%edx
  403a95:	8d 4d f8             	lea    -0x8(%ebp),%ecx
  403a98:	e8 46 f4 ff ff       	call   0x402ee3
  403a9d:	85 c0                	test   %eax,%eax
  403a9f:	0f 85 a2 01 00 00    	jne    0x403c47
  403aa5:	8b 45 d8             	mov    -0x28(%ebp),%eax
  403aa8:	3b 45 f0             	cmp    -0x10(%ebp),%eax
  403aab:	0f 83 db 00 00 00    	jae    0x403b8c
  403ab1:	80 7c 05 84 00       	cmpb   $0x0,-0x7c(%ebp,%eax,1)
  403ab6:	8d 44 05 84          	lea    -0x7c(%ebp,%eax,1),%eax
  403aba:	0f 85 cc 00 00 00    	jne    0x403b8c
  403ac0:	43                   	inc    %ebx
  403ac1:	c6 00 01             	movb   $0x1,(%eax)
  403ac4:	3b df                	cmp    %edi,%ebx
  403ac6:	72 ca                	jb     0x403a92
  403ac8:	33 c0                	xor    %eax,%eax
  403aca:	3b 45 10             	cmp    0x10(%ebp),%eax
  403acd:	73 18                	jae    0x403ae7
  403acf:	80 bc 05 44 ff ff ff 	cmpb   $0x0,-0xbc(%ebp,%eax,1)
  403ad6:	00 
  403ad7:	74 08                	je     0x403ae1
  403ad9:	40                   	inc    %eax
  403ada:	3b 45 10             	cmp    0x10(%ebp),%eax
  403add:	72 f0                	jb     0x403acf
  403adf:	eb 03                	jmp    0x403ae4
  403ae1:	89 45 e8             	mov    %eax,-0x18(%ebp)
  403ae4:	3b 45 10             	cmp    0x10(%ebp),%eax
  403ae7:	0f 84 9f 00 00 00    	je     0x403b8c
  403aed:	8b 4e 18             	mov    0x18(%esi),%ecx
  403af0:	8b 45 e4             	mov    -0x1c(%ebp),%eax
  403af3:	8b 55 ec             	mov    -0x14(%ebp),%edx
  403af6:	89 14 81             	mov    %edx,(%ecx,%eax,4)
  403af9:	8b 4e 1c             	mov    0x1c(%esi),%ecx
  403afc:	8b 55 0c             	mov    0xc(%ebp),%edx
  403aff:	89 14 81             	mov    %edx,(%ecx,%eax,4)
  403b02:	8b 4e 20             	mov    0x20(%esi),%ecx
  403b05:	8a 55 e8             	mov    -0x18(%ebp),%dl
  403b08:	88 14 08             	mov    %dl,(%eax,%ecx,1)
  403b0b:	8b 4d 10             	mov    0x10(%ebp),%ecx
  403b0e:	01 4d 0c             	add    %ecx,0xc(%ebp)
  403b11:	39 4d 0c             	cmp    %ecx,0xc(%ebp)
  403b14:	0f 82 b1 fc ff ff    	jb     0x4037cb
  403b1a:	8b 0e                	mov    (%esi),%ecx
  403b1c:	2b 4d ec             	sub    -0x14(%ebp),%ecx
  403b1f:	3b f9                	cmp    %ecx,%edi
  403b21:	77 69                	ja     0x403b8c
  403b23:	01 7d ec             	add    %edi,-0x14(%ebp)
  403b26:	40                   	inc    %eax
  403b27:	3b 45 f4             	cmp    -0xc(%ebp),%eax
  403b2a:	89 45 e4             	mov    %eax,-0x1c(%ebp)
  403b2d:	0f 82 7f fd ff ff    	jb     0x4038b2
  403b33:	8b 5d 14             	mov    0x14(%ebp),%ebx
  403b36:	8b 45 e4             	mov    -0x1c(%ebp),%eax
  403b39:	8b 4e 1c             	mov    0x1c(%esi),%ecx
  403b3c:	8b 55 0c             	mov    0xc(%ebp),%edx
  403b3f:	c1 e0 02             	shl    $0x2,%eax
  403b42:	89 14 01             	mov    %edx,(%ecx,%eax,1)
  403b45:	8b 4e 18             	mov    0x18(%esi),%ecx
  403b48:	8b 55 ec             	mov    -0x14(%ebp),%edx
  403b4b:	8b 7d f8             	mov    -0x8(%ebp),%edi
  403b4e:	2b 7d dc             	sub    -0x24(%ebp),%edi
  403b51:	89 14 01             	mov    %edx,(%ecx,%eax,1)
  403b54:	8b 4e 14             	mov    0x14(%esi),%ecx
  403b57:	89 3c 01             	mov    %edi,(%ecx,%eax,1)
  403b5a:	75 06                	jne    0x403b62
  403b5c:	83 66 28 00          	andl   $0x0,0x28(%esi)
  403b60:	eb 1e                	jmp    0x403b80
  403b62:	8b d7                	mov    %edi,%edx
  403b64:	8b cb                	mov    %ebx,%ecx
  403b66:	ff 13                	call   *(%ebx)
  403b68:	85 c0                	test   %eax,%eax
  403b6a:	89 46 28             	mov    %eax,0x28(%esi)
  403b6d:	0f 84 b3 00 00 00    	je     0x403c26
  403b73:	57                   	push   %edi
  403b74:	ff 75 dc             	push   -0x24(%ebp)
  403b77:	50                   	push   %eax
  403b78:	e8 d3 36 00 00       	call   0x407250
  403b7d:	83 c4 0c             	add    $0xc,%esp
  403b80:	80 7d 0b 00          	cmpb   $0x0,0xb(%ebp)
  403b84:	74 1b                	je     0x403ba1
  403b86:	83 7d fc 00          	cmpl   $0x0,-0x4(%ebp)
  403b8a:	74 07                	je     0x403b93
  403b8c:	6a 10                	push   $0x10
  403b8e:	e9 3a fc ff ff       	jmp    0x4037cd
  403b93:	8b 45 cc             	mov    -0x34(%ebp),%eax
  403b96:	8b 08                	mov    (%eax),%ecx
  403b98:	8b 40 04             	mov    0x4(%eax),%eax
  403b9b:	89 4d f8             	mov    %ecx,-0x8(%ebp)
  403b9e:	89 45 fc             	mov    %eax,-0x4(%ebp)
  403ba1:	6a 0c                	push   $0xc
  403ba3:	8d 4d f8             	lea    -0x8(%ebp),%ecx
  403ba6:	5a                   	pop    %edx
  403ba7:	e8 0d fb ff ff       	call   0x4036b9
  403bac:	85 c0                	test   %eax,%eax
  403bae:	0f 85 93 00 00 00    	jne    0x403c47
  403bb4:	8b 45 0c             	mov    0xc(%ebp),%eax
  403bb7:	85 c0                	test   %eax,%eax
  403bb9:	75 5b                	jne    0x403c16
  403bbb:	21 46 24             	and    %eax,0x24(%esi)
  403bbe:	33 ff                	xor    %edi,%edi
  403bc0:	39 7d 0c             	cmp    %edi,0xc(%ebp)
  403bc3:	76 18                	jbe    0x403bdd
  403bc5:	8b 46 24             	mov    0x24(%esi),%eax
  403bc8:	8d 4d f8             	lea    -0x8(%ebp),%ecx
  403bcb:	8d 14 f8             	lea    (%eax,%edi,8),%edx
  403bce:	e8 6a f3 ff ff       	call   0x402f3d
  403bd3:	85 c0                	test   %eax,%eax
  403bd5:	75 70                	jne    0x403c47
  403bd7:	47                   	inc    %edi
  403bd8:	3b 7d 0c             	cmp    0xc(%ebp),%edi
  403bdb:	72 e8                	jb     0x403bc5
  403bdd:	8d 55 d4             	lea    -0x2c(%ebp),%edx
  403be0:	8d 4d f8             	lea    -0x8(%ebp),%ecx
  403be3:	e8 55 f3 ff ff       	call   0x402f3d
  403be8:	85 c0                	test   %eax,%eax
  403bea:	75 5b                	jne    0x403c47
  403bec:	8b 45 d4             	mov    -0x2c(%ebp),%eax
  403bef:	0b 45 d8             	or     -0x28(%ebp),%eax
  403bf2:	74 43                	je     0x403c37
  403bf4:	83 7d d4 0a          	cmpl   $0xa,-0x2c(%ebp)
  403bf8:	75 33                	jne    0x403c2d
  403bfa:	83 7d d8 00          	cmpl   $0x0,-0x28(%ebp)
  403bfe:	75 2d                	jne    0x403c2d
  403c00:	8b 55 f4             	mov    -0xc(%ebp),%edx
  403c03:	8d 46 0c             	lea    0xc(%esi),%eax
  403c06:	53                   	push   %ebx
  403c07:	50                   	push   %eax
  403c08:	8d 4d f8             	lea    -0x8(%ebp),%ecx
  403c0b:	e8 3e 00 00 00       	call   0x403c4e
  403c10:	85 c0                	test   %eax,%eax
  403c12:	75 33                	jne    0x403c47
  403c14:	eb c7                	jmp    0x403bdd
  403c16:	8b d0                	mov    %eax,%edx
  403c18:	8b cb                	mov    %ebx,%ecx
  403c1a:	c1 e2 03             	shl    $0x3,%edx
  403c1d:	ff 13                	call   *(%ebx)
  403c1f:	85 c0                	test   %eax,%eax
  403c21:	89 46 24             	mov    %eax,0x24(%esi)
  403c24:	75 98                	jne    0x403bbe
  403c26:	6a 02                	push   $0x2
  403c28:	e9 a0 fb ff ff       	jmp    0x4037cd
  403c2d:	8d 4d f8             	lea    -0x8(%ebp),%ecx
  403c30:	e8 4a fa ff ff       	call   0x40367f
  403c35:	eb d9                	jmp    0x403c10
  403c37:	8b 45 cc             	mov    -0x34(%ebp),%eax
  403c3a:	8b 4d f8             	mov    -0x8(%ebp),%ecx
  403c3d:	89 08                	mov    %ecx,(%eax)
  403c3f:	8b 4d fc             	mov    -0x4(%ebp),%ecx
  403c42:	89 48 04             	mov    %ecx,0x4(%eax)
  403c45:	33 c0                	xor    %eax,%eax
  403c47:	5f                   	pop    %edi
  403c48:	5e                   	pop    %esi
  403c49:	5b                   	pop    %ebx
  403c4a:	c9                   	leave  
  403c4b:	c2 10 00             	ret    $0x10
  403c4e:	55                   	push   %ebp
  403c4f:	8b ec                	mov    %esp,%ebp
  403c51:	56                   	push   %esi
  403c52:	57                   	push   %edi
  403c53:	8b f2                	mov    %edx,%esi
  403c55:	8b f9                	mov    %ecx,%edi
  403c57:	8b 55 0c             	mov    0xc(%ebp),%edx
  403c5a:	8b 4d 08             	mov    0x8(%ebp),%ecx
  403c5d:	e8 ea ee ff ff       	call   0x402b4c
  403c62:	8b d6                	mov    %esi,%edx
  403c64:	8b cf                	mov    %edi,%ecx
  403c66:	ff 75 0c             	push   0xc(%ebp)
  403c69:	ff 75 08             	push   0x8(%ebp)
  403c6c:	e8 19 00 00 00       	call   0x403c8a
  403c71:	85 c0                	test   %eax,%eax
  403c73:	75 0f                	jne    0x403c84
  403c75:	ff 75 0c             	push   0xc(%ebp)
  403c78:	8b d6                	mov    %esi,%edx
  403c7a:	8b cf                	mov    %edi,%ecx
  403c7c:	ff 75 08             	push   0x8(%ebp)
  403c7f:	e8 aa 00 00 00       	call   0x403d2e
  403c84:	5f                   	pop    %edi
  403c85:	5e                   	pop    %esi
  403c86:	5d                   	pop    %ebp
  403c87:	c2 08 00             	ret    $0x8
  403c8a:	55                   	push   %ebp
  403c8b:	8b ec                	mov    %esp,%ebp
  403c8d:	8b 45 08             	mov    0x8(%ebp),%eax
  403c90:	53                   	push   %ebx
  403c91:	56                   	push   %esi
  403c92:	8b da                	mov    %edx,%ebx
  403c94:	83 20 00             	andl   $0x0,(%eax)
  403c97:	8b f1                	mov    %ecx,%esi
  403c99:	57                   	push   %edi
  403c9a:	8d 7b 07             	lea    0x7(%ebx),%edi
  403c9d:	8b 46 04             	mov    0x4(%esi),%eax
  403ca0:	c1 ef 03             	shr    $0x3,%edi
  403ca3:	85 c0                	test   %eax,%eax
  403ca5:	75 04                	jne    0x403cab
  403ca7:	6a 10                	push   $0x10
  403ca9:	eb 50                	jmp    0x403cfb
  403cab:	8d 48 ff             	lea    -0x1(%eax),%ecx
  403cae:	8b 06                	mov    (%esi),%eax
  403cb0:	89 4e 04             	mov    %ecx,0x4(%esi)
  403cb3:	8a 10                	mov    (%eax),%dl
  403cb5:	40                   	inc    %eax
  403cb6:	85 ff                	test   %edi,%edi
  403cb8:	89 06                	mov    %eax,(%esi)
  403cba:	74 69                	je     0x403d25
  403cbc:	84 d2                	test   %dl,%dl
  403cbe:	75 27                	jne    0x403ce7
  403cc0:	3b f9                	cmp    %ecx,%edi
  403cc2:	77 e3                	ja     0x403ca7
  403cc4:	8b 4d 0c             	mov    0xc(%ebp),%ecx
  403cc7:	8b d7                	mov    %edi,%edx
  403cc9:	ff 11                	call   *(%ecx)
  403ccb:	8b 4d 08             	mov    0x8(%ebp),%ecx
  403cce:	85 c0                	test   %eax,%eax
  403cd0:	89 01                	mov    %eax,(%ecx)
  403cd2:	74 25                	je     0x403cf9
  403cd4:	57                   	push   %edi
  403cd5:	ff 36                	push   (%esi)
  403cd7:	50                   	push   %eax
  403cd8:	e8 73 35 00 00       	call   0x407250
  403cdd:	29 7e 04             	sub    %edi,0x4(%esi)
  403ce0:	83 c4 0c             	add    $0xc,%esp
  403ce3:	01 3e                	add    %edi,(%esi)
  403ce5:	eb 3e                	jmp    0x403d25
  403ce7:	8b 4d 0c             	mov    0xc(%ebp),%ecx
  403cea:	8b d7                	mov    %edi,%edx
  403cec:	ff 11                	call   *(%ecx)
  403cee:	8b f0                	mov    %eax,%esi
  403cf0:	8b 45 08             	mov    0x8(%ebp),%eax
  403cf3:	85 f6                	test   %esi,%esi
  403cf5:	89 30                	mov    %esi,(%eax)
  403cf7:	75 05                	jne    0x403cfe
  403cf9:	6a 02                	push   $0x2
  403cfb:	58                   	pop    %eax
  403cfc:	eb 29                	jmp    0x403d27
  403cfe:	57                   	push   %edi
  403cff:	68 ff 00 00 00       	push   $0xff
  403d04:	56                   	push   %esi
  403d05:	e8 4c 35 00 00       	call   0x407256
  403d0a:	83 c4 0c             	add    $0xc,%esp
  403d0d:	83 e3 07             	and    $0x7,%ebx
  403d10:	74 13                	je     0x403d25
  403d12:	b0 01                	mov    $0x1,%al
  403d14:	8b cb                	mov    %ebx,%ecx
  403d16:	d2 e0                	shl    %cl,%al
  403d18:	6a 08                	push   $0x8
  403d1a:	59                   	pop    %ecx
  403d1b:	2b cb                	sub    %ebx,%ecx
  403d1d:	fe c8                	dec    %al
  403d1f:	d2 e0                	shl    %cl,%al
  403d21:	88 44 3e ff          	mov    %al,-0x1(%esi,%edi,1)
  403d25:	33 c0                	xor    %eax,%eax
  403d27:	5f                   	pop    %edi
  403d28:	5e                   	pop    %esi
  403d29:	5b                   	pop    %ebx
  403d2a:	5d                   	pop    %ebp
  403d2b:	c2 08 00             	ret    $0x8
  403d2e:	55                   	push   %ebp
  403d2f:	8b ec                	mov    %esp,%ebp
  403d31:	51                   	push   %ecx
  403d32:	51                   	push   %ecx
  403d33:	53                   	push   %ebx
  403d34:	8b da                	mov    %edx,%ebx
  403d36:	56                   	push   %esi
  403d37:	57                   	push   %edi
  403d38:	85 db                	test   %ebx,%ebx
  403d3a:	89 5d f8             	mov    %ebx,-0x8(%ebp)
  403d3d:	8b f1                	mov    %ecx,%esi
  403d3f:	75 4f                	jne    0x403d90
  403d41:	8b 4d 08             	mov    0x8(%ebp),%ecx
  403d44:	21 51 04             	and    %edx,0x4(%ecx)
  403d47:	8b 11                	mov    (%ecx),%edx
  403d49:	83 65 08 00          	andl   $0x0,0x8(%ebp)
  403d4d:	8b 06                	mov    (%esi),%eax
  403d4f:	8b 7e 04             	mov    0x4(%esi),%edi
  403d52:	8b 49 04             	mov    0x4(%ecx),%ecx
  403d55:	89 55 fc             	mov    %edx,-0x4(%ebp)
  403d58:	85 db                	test   %ebx,%ebx
  403d5a:	76 61                	jbe    0x403dbd
  403d5c:	89 4d 0c             	mov    %ecx,0xc(%ebp)
  403d5f:	8b 4d 08             	mov    0x8(%ebp),%ecx
  403d62:	8b 5d fc             	mov    -0x4(%ebp),%ebx
  403d65:	83 e1 07             	and    $0x7,%ecx
  403d68:	ba 80 00 00 00       	mov    $0x80,%edx
  403d6d:	d3 fa                	sar    %cl,%edx
  403d6f:	8b 4d 08             	mov    0x8(%ebp),%ecx
  403d72:	c1 e9 03             	shr    $0x3,%ecx
  403d75:	8a 0c 19             	mov    (%ecx,%ebx,1),%cl
  403d78:	84 d1                	test   %dl,%cl
  403d7a:	74 2c                	je     0x403da8
  403d7c:	83 ff 04             	cmp    $0x4,%edi
  403d7f:	72 4a                	jb     0x403dcb
  403d81:	8b 55 0c             	mov    0xc(%ebp),%edx
  403d84:	8b 08                	mov    (%eax),%ecx
  403d86:	83 ef 04             	sub    $0x4,%edi
  403d89:	83 c0 04             	add    $0x4,%eax
  403d8c:	89 0a                	mov    %ecx,(%edx)
  403d8e:	eb 1e                	jmp    0x403dae
  403d90:	8b 4d 0c             	mov    0xc(%ebp),%ecx
  403d93:	8b d3                	mov    %ebx,%edx
  403d95:	c1 e2 02             	shl    $0x2,%edx
  403d98:	ff 11                	call   *(%ecx)
  403d9a:	8b 4d 08             	mov    0x8(%ebp),%ecx
  403d9d:	85 c0                	test   %eax,%eax
  403d9f:	89 41 04             	mov    %eax,0x4(%ecx)
  403da2:	75 a3                	jne    0x403d47
  403da4:	6a 02                	push   $0x2
  403da6:	eb 25                	jmp    0x403dcd
  403da8:	8b 4d 0c             	mov    0xc(%ebp),%ecx
  403dab:	83 21 00             	andl   $0x0,(%ecx)
  403dae:	ff 45 08             	incl   0x8(%ebp)
  403db1:	83 45 0c 04          	addl   $0x4,0xc(%ebp)
  403db5:	8b 4d 08             	mov    0x8(%ebp),%ecx
  403db8:	3b 4d f8             	cmp    -0x8(%ebp),%ecx
  403dbb:	72 a2                	jb     0x403d5f
  403dbd:	89 06                	mov    %eax,(%esi)
  403dbf:	89 7e 04             	mov    %edi,0x4(%esi)
  403dc2:	33 c0                	xor    %eax,%eax
  403dc4:	5f                   	pop    %edi
  403dc5:	5e                   	pop    %esi
  403dc6:	5b                   	pop    %ebx
  403dc7:	c9                   	leave  
  403dc8:	c2 08 00             	ret    $0x8
  403dcb:	6a 10                	push   $0x10
  403dcd:	58                   	pop    %eax
  403dce:	eb f4                	jmp    0x403dc4
  403dd0:	55                   	push   %ebp
  403dd1:	8b ec                	mov    %esp,%ebp
  403dd3:	83 ec 1c             	sub    $0x1c,%esp
  403dd6:	53                   	push   %ebx
  403dd7:	8b 59 04             	mov    0x4(%ecx),%ebx
  403dda:	56                   	push   %esi
  403ddb:	57                   	push   %edi
  403ddc:	8b fa                	mov    %edx,%edi
  403dde:	89 4d ec             	mov    %ecx,-0x14(%ebp)
  403de1:	33 f6                	xor    %esi,%esi
  403de3:	8d 55 e4             	lea    -0x1c(%ebp),%edx
  403de6:	8b cf                	mov    %edi,%ecx
  403de8:	89 75 e4             	mov    %esi,-0x1c(%ebp)
  403deb:	89 75 e8             	mov    %esi,-0x18(%ebp)
  403dee:	89 75 fc             	mov    %esi,-0x4(%ebp)
  403df1:	89 5d f8             	mov    %ebx,-0x8(%ebp)
  403df4:	89 75 f4             	mov    %esi,-0xc(%ebp)
  403df7:	e8 41 f1 ff ff       	call   0x402f3d
  403dfc:	3b c6                	cmp    %esi,%eax
  403dfe:	0f 85 86 01 00 00    	jne    0x403f8a
  403e04:	8b 75 08             	mov    0x8(%ebp),%esi
  403e07:	8b 4d e4             	mov    -0x1c(%ebp),%ecx
  403e0a:	8b 45 e8             	mov    -0x18(%ebp),%eax
  403e0d:	83 f9 0d             	cmp    $0xd,%ecx
  403e10:	0f 85 91 00 00 00    	jne    0x403ea7
  403e16:	33 d2                	xor    %edx,%edx
  403e18:	3b c2                	cmp    %edx,%eax
  403e1a:	0f 85 87 00 00 00    	jne    0x403ea7
  403e20:	8b 07                	mov    (%edi),%eax
  403e22:	3b da                	cmp    %edx,%ebx
  403e24:	89 46 08             	mov    %eax,0x8(%esi)
  403e27:	89 55 f8             	mov    %edx,-0x8(%ebp)
  403e2a:	89 55 fc             	mov    %edx,-0x4(%ebp)
  403e2d:	89 55 08             	mov    %edx,0x8(%ebp)
  403e30:	76 6b                	jbe    0x403e9d
  403e32:	8d 55 f0             	lea    -0x10(%ebp),%edx
  403e35:	8b cf                	mov    %edi,%ecx
  403e37:	e8 a7 f0 ff ff       	call   0x402ee3
  403e3c:	85 c0                	test   %eax,%eax
  403e3e:	0f 85 46 01 00 00    	jne    0x403f8a
  403e44:	8b 4d f0             	mov    -0x10(%ebp),%ecx
  403e47:	8b 55 f8             	mov    -0x8(%ebp),%edx
  403e4a:	8d 04 11             	lea    (%ecx,%edx,1),%eax
  403e4d:	3b d0                	cmp    %eax,%edx
  403e4f:	0f 87 8e 00 00 00    	ja     0x403ee3
  403e55:	85 c9                	test   %ecx,%ecx
  403e57:	89 45 f8             	mov    %eax,-0x8(%ebp)
  403e5a:	74 0a                	je     0x403e66
  403e5c:	8b 45 f4             	mov    -0xc(%ebp),%eax
  403e5f:	8d 44 08 ff          	lea    -0x1(%eax,%ecx,1),%eax
  403e63:	89 45 f4             	mov    %eax,-0xc(%ebp)
  403e66:	83 f9 01             	cmp    $0x1,%ecx
  403e69:	75 27                	jne    0x403e92
  403e6b:	8b 45 ec             	mov    -0x14(%ebp),%eax
  403e6e:	8b 40 0c             	mov    0xc(%eax),%eax
  403e71:	85 c0                	test   %eax,%eax
  403e73:	74 1d                	je     0x403e92
  403e75:	8b 4d 08             	mov    0x8(%ebp),%ecx
  403e78:	ba 80 00 00 00       	mov    $0x80,%edx
  403e7d:	83 e1 07             	and    $0x7,%ecx
  403e80:	d3 fa                	sar    %cl,%edx
  403e82:	8b 4d 08             	mov    0x8(%ebp),%ecx
  403e85:	c1 e9 03             	shr    $0x3,%ecx
  403e88:	8a 04 01             	mov    (%ecx,%eax,1),%al
  403e8b:	84 d0                	test   %dl,%al
  403e8d:	75 06                	jne    0x403e95
  403e8f:	8b 4d f0             	mov    -0x10(%ebp),%ecx
  403e92:	01 4d fc             	add    %ecx,-0x4(%ebp)
  403e95:	ff 45 08             	incl   0x8(%ebp)
  403e98:	39 5d 08             	cmp    %ebx,0x8(%ebp)
  403e9b:	72 95                	jb     0x403e32
  403e9d:	8b 07                	mov    (%edi),%eax
  403e9f:	2b 46 08             	sub    0x8(%esi),%eax
  403ea2:	89 46 0c             	mov    %eax,0xc(%esi)
  403ea5:	eb 25                	jmp    0x403ecc
  403ea7:	83 f9 0a             	cmp    $0xa,%ecx
  403eaa:	75 04                	jne    0x403eb0
  403eac:	85 c0                	test   %eax,%eax
  403eae:	74 3b                	je     0x403eeb
  403eb0:	83 f9 09             	cmp    $0x9,%ecx
  403eb3:	75 04                	jne    0x403eb9
  403eb5:	85 c0                	test   %eax,%eax
  403eb7:	74 32                	je     0x403eeb
  403eb9:	0b c8                	or     %eax,%ecx
  403ebb:	74 2e                	je     0x403eeb
  403ebd:	8b cf                	mov    %edi,%ecx
  403ebf:	e8 bb f7 ff ff       	call   0x40367f
  403ec4:	85 c0                	test   %eax,%eax
  403ec6:	0f 85 be 00 00 00    	jne    0x403f8a
  403ecc:	8d 55 e4             	lea    -0x1c(%ebp),%edx
  403ecf:	8b cf                	mov    %edi,%ecx
  403ed1:	e8 67 f0 ff ff       	call   0x402f3d
  403ed6:	85 c0                	test   %eax,%eax
  403ed8:	0f 84 29 ff ff ff    	je     0x403e07
  403ede:	e9 a7 00 00 00       	jmp    0x403f8a
  403ee3:	6a 04                	push   $0x4
  403ee5:	58                   	pop    %eax
  403ee6:	e9 9f 00 00 00       	jmp    0x403f8a
  403eeb:	83 7e 08 00          	cmpl   $0x0,0x8(%esi)
  403eef:	75 19                	jne    0x403f0a
  403ef1:	8b 45 ec             	mov    -0x14(%ebp),%eax
  403ef4:	89 5d fc             	mov    %ebx,-0x4(%ebp)
  403ef7:	8b 48 0c             	mov    0xc(%eax),%ecx
  403efa:	85 c9                	test   %ecx,%ecx
  403efc:	74 0c                	je     0x403f0a
  403efe:	8b d3                	mov    %ebx,%edx
  403f00:	e8 5c f8 ff ff       	call   0x403761
  403f05:	2b d8                	sub    %eax,%ebx
  403f07:	89 5d fc             	mov    %ebx,-0x4(%ebp)
  403f0a:	8b 45 f8             	mov    -0x8(%ebp),%eax
  403f0d:	83 7d e4 09          	cmpl   $0x9,-0x1c(%ebp)
  403f11:	89 06                	mov    %eax,(%esi)
  403f13:	8b 45 fc             	mov    -0x4(%ebp),%eax
  403f16:	89 46 04             	mov    %eax,0x4(%esi)
  403f19:	75 2f                	jne    0x403f4a
  403f1b:	83 7d e8 00          	cmpl   $0x0,-0x18(%ebp)
  403f1f:	75 29                	jne    0x403f4a
  403f21:	8b 07                	mov    (%edi),%eax
  403f23:	8b 55 f4             	mov    -0xc(%ebp),%edx
  403f26:	8b cf                	mov    %edi,%ecx
  403f28:	89 46 10             	mov    %eax,0x10(%esi)
  403f2b:	e8 61 00 00 00       	call   0x403f91
  403f30:	85 c0                	test   %eax,%eax
  403f32:	75 56                	jne    0x403f8a
  403f34:	8b 07                	mov    (%edi),%eax
  403f36:	2b 46 10             	sub    0x10(%esi),%eax
  403f39:	89 46 14             	mov    %eax,0x14(%esi)
  403f3c:	8d 55 e4             	lea    -0x1c(%ebp),%edx
  403f3f:	8b cf                	mov    %edi,%ecx
  403f41:	e8 f7 ef ff ff       	call   0x402f3d
  403f46:	85 c0                	test   %eax,%eax
  403f48:	75 40                	jne    0x403f8a
  403f4a:	8b 45 e4             	mov    -0x1c(%ebp),%eax
  403f4d:	0b 45 e8             	or     -0x18(%ebp),%eax
  403f50:	74 36                	je     0x403f88
  403f52:	83 7d e4 0a          	cmpl   $0xa,-0x1c(%ebp)
  403f56:	75 23                	jne    0x403f7b
  403f58:	83 7d e8 00          	cmpl   $0x0,-0x18(%ebp)
  403f5c:	75 1d                	jne    0x403f7b
  403f5e:	8b 07                	mov    (%edi),%eax
  403f60:	8b 55 fc             	mov    -0x4(%ebp),%edx
  403f63:	8b cf                	mov    %edi,%ecx
  403f65:	89 46 18             	mov    %eax,0x18(%esi)
  403f68:	e8 9e f7 ff ff       	call   0x40370b
  403f6d:	85 c0                	test   %eax,%eax
  403f6f:	75 19                	jne    0x403f8a
  403f71:	8b 07                	mov    (%edi),%eax
  403f73:	2b 46 18             	sub    0x18(%esi),%eax
  403f76:	89 46 1c             	mov    %eax,0x1c(%esi)
  403f79:	eb c1                	jmp    0x403f3c
  403f7b:	8b cf                	mov    %edi,%ecx
  403f7d:	e8 fd f6 ff ff       	call   0x40367f
  403f82:	85 c0                	test   %eax,%eax
  403f84:	75 04                	jne    0x403f8a
  403f86:	eb b4                	jmp    0x403f3c
  403f88:	33 c0                	xor    %eax,%eax
  403f8a:	5f                   	pop    %edi
  403f8b:	5e                   	pop    %esi
  403f8c:	5b                   	pop    %ebx
  403f8d:	c9                   	leave  
  403f8e:	c2 04 00             	ret    $0x4
  403f91:	55                   	push   %ebp
  403f92:	8b ec                	mov    %esp,%ebp
  403f94:	51                   	push   %ecx
  403f95:	53                   	push   %ebx
  403f96:	56                   	push   %esi
  403f97:	8b 71 04             	mov    0x4(%ecx),%esi
  403f9a:	57                   	push   %edi
  403f9b:	8b 39                	mov    (%ecx),%edi
  403f9d:	89 55 fc             	mov    %edx,-0x4(%ebp)
  403fa0:	85 d2                	test   %edx,%edx
  403fa2:	74 36                	je     0x403fda
  403fa4:	85 f6                	test   %esi,%esi
  403fa6:	74 3e                	je     0x403fe6
  403fa8:	8a 07                	mov    (%edi),%al
  403faa:	4e                   	dec    %esi
  403fab:	47                   	inc    %edi
  403fac:	a8 80                	test   $0x80,%al
  403fae:	74 25                	je     0x403fd5
  403fb0:	a8 40                	test   $0x40,%al
  403fb2:	75 08                	jne    0x403fbc
  403fb4:	85 f6                	test   %esi,%esi
  403fb6:	74 2e                	je     0x403fe6
  403fb8:	4e                   	dec    %esi
  403fb9:	47                   	inc    %edi
  403fba:	eb 19                	jmp    0x403fd5
  403fbc:	6a 02                	push   $0x2
  403fbe:	b2 20                	mov    $0x20,%dl
  403fc0:	5b                   	pop    %ebx
  403fc1:	84 d0                	test   %dl,%al
  403fc3:	74 08                	je     0x403fcd
  403fc5:	d0 ea                	shr    %dl
  403fc7:	43                   	inc    %ebx
  403fc8:	83 fb 08             	cmp    $0x8,%ebx
  403fcb:	72 f4                	jb     0x403fc1
  403fcd:	3b de                	cmp    %esi,%ebx
  403fcf:	77 15                	ja     0x403fe6
  403fd1:	2b f3                	sub    %ebx,%esi
  403fd3:	03 fb                	add    %ebx,%edi
  403fd5:	ff 4d fc             	decl   -0x4(%ebp)
  403fd8:	75 ca                	jne    0x403fa4
  403fda:	89 39                	mov    %edi,(%ecx)
  403fdc:	89 71 04             	mov    %esi,0x4(%ecx)
  403fdf:	33 c0                	xor    %eax,%eax
  403fe1:	5f                   	pop    %edi
  403fe2:	5e                   	pop    %esi
  403fe3:	5b                   	pop    %ebx
  403fe4:	c9                   	leave  
  403fe5:	c3                   	ret    
  403fe6:	6a 10                	push   $0x10
  403fe8:	58                   	pop    %eax
  403fe9:	eb f6                	jmp    0x403fe1
  403feb:	55                   	push   %ebp
  403fec:	8b ec                	mov    %esp,%ebp
  403fee:	83 ec 4c             	sub    $0x4c,%esp
  403ff1:	83 65 f4 00          	andl   $0x0,-0xc(%ebp)
  403ff5:	53                   	push   %ebx
  403ff6:	56                   	push   %esi
  403ff7:	57                   	push   %edi
  403ff8:	6a 08                	push   $0x8
  403ffa:	89 55 f8             	mov    %edx,-0x8(%ebp)
  403ffd:	5f                   	pop    %edi
  403ffe:	8b d9                	mov    %ecx,%ebx
  404000:	8d 75 b4             	lea    -0x4c(%ebp),%esi
  404003:	89 7d fc             	mov    %edi,-0x4(%ebp)
  404006:	8b ce                	mov    %esi,%ecx
  404008:	e8 e2 0b 00 00       	call   0x404bef
  40400d:	03 f7                	add    %edi,%esi
  40400f:	ff 4d fc             	decl   -0x4(%ebp)
  404012:	75 f2                	jne    0x404006
  404014:	ff 75 10             	push   0x10(%ebp)
  404017:	8d 45 f4             	lea    -0xc(%ebp),%eax
  40401a:	8b 55 f8             	mov    -0x8(%ebp),%edx
  40401d:	8b cb                	mov    %ebx,%ecx
  40401f:	ff 75 0c             	push   0xc(%ebp)
  404022:	50                   	push   %eax
  404023:	8d 45 b4             	lea    -0x4c(%ebp),%eax
  404026:	50                   	push   %eax
  404027:	ff 75 08             	push   0x8(%ebp)
  40402a:	e8 32 00 00 00       	call   0x404061
  40402f:	89 45 0c             	mov    %eax,0xc(%ebp)
  404032:	8d 75 b4             	lea    -0x4c(%ebp),%esi
  404035:	8b df                	mov    %edi,%ebx
  404037:	8b 55 10             	mov    0x10(%ebp),%edx
  40403a:	8b ce                	mov    %esi,%ecx
  40403c:	e8 e5 0b 00 00       	call   0x404c26
  404041:	03 f7                	add    %edi,%esi
  404043:	4b                   	dec    %ebx
  404044:	75 f1                	jne    0x404037
  404046:	8b 45 0c             	mov    0xc(%ebp),%eax
  404049:	5f                   	pop    %edi
  40404a:	5e                   	pop    %esi
  40404b:	5b                   	pop    %ebx
  40404c:	85 c0                	test   %eax,%eax
  40404e:	75 0d                	jne    0x40405d
  404050:	8b 45 f8             	mov    -0x8(%ebp),%eax
  404053:	8b 40 04             	mov    0x4(%eax),%eax
  404056:	f7 d8                	neg    %eax
  404058:	1b c0                	sbb    %eax,%eax
  40405a:	83 e0 0b             	and    $0xb,%eax
  40405d:	c9                   	leave  
  40405e:	c2 0c 00             	ret    $0xc
  404061:	55                   	push   %ebp
  404062:	8b ec                	mov    %esp,%ebp
  404064:	81 ec 98 00 00 00    	sub    $0x98,%esp
  40406a:	53                   	push   %ebx
  40406b:	56                   	push   %esi
  40406c:	57                   	push   %edi
  40406d:	8b fa                	mov    %edx,%edi
  40406f:	8b f1                	mov    %ecx,%esi
  404071:	33 db                	xor    %ebx,%ebx
  404073:	8d 55 f8             	lea    -0x8(%ebp),%edx
  404076:	8b cf                	mov    %edi,%ecx
  404078:	89 5d b8             	mov    %ebx,-0x48(%ebp)
  40407b:	89 5d bc             	mov    %ebx,-0x44(%ebp)
  40407e:	89 5d c0             	mov    %ebx,-0x40(%ebp)
  404081:	89 5d c4             	mov    %ebx,-0x3c(%ebp)
  404084:	89 5d b0             	mov    %ebx,-0x50(%ebp)
  404087:	89 5d b4             	mov    %ebx,-0x4c(%ebp)
  40408a:	89 5d ac             	mov    %ebx,-0x54(%ebp)
  40408d:	89 5d a8             	mov    %ebx,-0x58(%ebp)
  404090:	e8 a8 ee ff ff       	call   0x402f3d
  404095:	3b c3                	cmp    %ebx,%eax
  404097:	0f 85 d6 07 00 00    	jne    0x404873
  40409d:	83 7d f8 02          	cmpl   $0x2,-0x8(%ebp)
  4040a1:	75 42                	jne    0x4040e5
  4040a3:	39 5d fc             	cmp    %ebx,-0x4(%ebp)
  4040a6:	75 3d                	jne    0x4040e5
  4040a8:	8d 55 f0             	lea    -0x10(%ebp),%edx
  4040ab:	8b cf                	mov    %edi,%ecx
  4040ad:	e8 8b ee ff ff       	call   0x402f3d
  4040b2:	3b c3                	cmp    %ebx,%eax
  4040b4:	0f 85 b9 07 00 00    	jne    0x404873
  4040ba:	8b 45 f0             	mov    -0x10(%ebp),%eax
  4040bd:	0b 45 f4             	or     -0xc(%ebp),%eax
  4040c0:	74 11                	je     0x4040d3
  4040c2:	8b cf                	mov    %edi,%ecx
  4040c4:	e8 b6 f5 ff ff       	call   0x40367f
  4040c9:	3b c3                	cmp    %ebx,%eax
  4040cb:	0f 85 a2 07 00 00    	jne    0x404873
  4040d1:	eb d5                	jmp    0x4040a8
  4040d3:	8d 55 f8             	lea    -0x8(%ebp),%edx
  4040d6:	8b cf                	mov    %edi,%ecx
  4040d8:	e8 60 ee ff ff       	call   0x402f3d
  4040dd:	3b c3                	cmp    %ebx,%eax
  4040df:	0f 85 8e 07 00 00    	jne    0x404873
  4040e5:	83 7d f8 03          	cmpl   $0x3,-0x8(%ebp)
  4040e9:	75 74                	jne    0x40415f
  4040eb:	39 5d fc             	cmp    %ebx,-0x4(%ebp)
  4040ee:	75 6f                	jne    0x40415f
  4040f0:	8d 8d 68 ff ff ff    	lea    -0x98(%ebp),%ecx
  4040f6:	e8 b5 e9 ff ff       	call   0x402ab0
  4040fb:	8b 46 30             	mov    0x30(%esi),%eax
  4040fe:	8b 4d 08             	mov    0x8(%ebp),%ecx
  404101:	ff 75 18             	push   0x18(%ebp)
  404104:	89 45 98             	mov    %eax,-0x68(%ebp)
  404107:	8b 46 34             	mov    0x34(%esi),%eax
  40410a:	8b d7                	mov    %edi,%edx
  40410c:	89 45 9c             	mov    %eax,-0x64(%ebp)
  40410f:	8d 85 68 ff ff ff    	lea    -0x98(%ebp),%eax
  404115:	50                   	push   %eax
  404116:	ff 76 3c             	push   0x3c(%esi)
  404119:	ff 76 38             	push   0x38(%esi)
  40411c:	6a 08                	push   $0x8
  40411e:	ff 75 0c             	push   0xc(%ebp)
  404121:	e8 48 f2 ff ff       	call   0x40336e
  404126:	8b 4d 10             	mov    0x10(%ebp),%ecx
  404129:	8b 55 18             	mov    0x18(%ebp),%edx
  40412c:	89 45 08             	mov    %eax,0x8(%ebp)
  40412f:	8b 85 6c ff ff ff    	mov    -0x94(%ebp),%eax
  404135:	89 01                	mov    %eax,(%ecx)
  404137:	8d 8d 68 ff ff ff    	lea    -0x98(%ebp),%ecx
  40413d:	e8 29 ea ff ff       	call   0x402b6b
  404142:	8b 45 08             	mov    0x8(%ebp),%eax
  404145:	3b c3                	cmp    %ebx,%eax
  404147:	0f 85 26 07 00 00    	jne    0x404873
  40414d:	8d 55 f8             	lea    -0x8(%ebp),%edx
  404150:	8b cf                	mov    %edi,%ecx
  404152:	e8 e6 ed ff ff       	call   0x402f3d
  404157:	3b c3                	cmp    %ebx,%eax
  404159:	0f 85 14 07 00 00    	jne    0x404873
  40415f:	83 7d f8 04          	cmpl   $0x4,-0x8(%ebp)
  404163:	75 4c                	jne    0x4041b1
  404165:	83 7d fc 00          	cmpl   $0x0,-0x4(%ebp)
  404169:	75 46                	jne    0x4041b1
  40416b:	ff 75 14             	push   0x14(%ebp)
  40416e:	8d 45 a8             	lea    -0x58(%ebp),%eax
  404171:	8d 5e 40             	lea    0x40(%esi),%ebx
  404174:	8b d7                	mov    %edi,%edx
  404176:	50                   	push   %eax
  404177:	8b 45 10             	mov    0x10(%ebp),%eax
  40417a:	53                   	push   %ebx
  40417b:	8b ce                	mov    %esi,%ecx
  40417d:	ff 30                	push   (%eax)
  40417f:	ff 75 0c             	push   0xc(%ebp)
  404182:	68 00 00 00 40       	push   $0x40000000
  404187:	e8 c8 f2 ff ff       	call   0x403454
  40418c:	85 c0                	test   %eax,%eax
  40418e:	0f 85 df 06 00 00    	jne    0x404873
  404194:	8b 46 38             	mov    0x38(%esi),%eax
  404197:	8b 4e 3c             	mov    0x3c(%esi),%ecx
  40419a:	01 03                	add    %eax,(%ebx)
  40419c:	8d 55 f8             	lea    -0x8(%ebp),%edx
  40419f:	11 4b 04             	adc    %ecx,0x4(%ebx)
  4041a2:	8b cf                	mov    %edi,%ecx
  4041a4:	e8 94 ed ff ff       	call   0x402f3d
  4041a9:	85 c0                	test   %eax,%eax
  4041ab:	0f 85 c2 06 00 00    	jne    0x404873
  4041b1:	8b 45 f8             	mov    -0x8(%ebp),%eax
  4041b4:	0b 45 fc             	or     -0x4(%ebp),%eax
  4041b7:	0f 84 af 06 00 00    	je     0x40486c
  4041bd:	83 7d f8 05          	cmpl   $0x5,-0x8(%ebp)
  4041c1:	0f 85 a1 06 00 00    	jne    0x404868
  4041c7:	33 db                	xor    %ebx,%ebx
  4041c9:	39 5d fc             	cmp    %ebx,-0x4(%ebp)
  4041cc:	0f 85 96 06 00 00    	jne    0x404868
  4041d2:	8d 55 08             	lea    0x8(%ebp),%edx
  4041d5:	8b cf                	mov    %edi,%ecx
  4041d7:	89 5d 08             	mov    %ebx,0x8(%ebp)
  4041da:	89 5d e8             	mov    %ebx,-0x18(%ebp)
  4041dd:	89 5d d8             	mov    %ebx,-0x28(%ebp)
  4041e0:	89 5d d0             	mov    %ebx,-0x30(%ebp)
  4041e3:	e8 fb ec ff ff       	call   0x402ee3
  4041e8:	3b c3                	cmp    %ebx,%eax
  4041ea:	0f 85 83 06 00 00    	jne    0x404873
  4041f0:	8b 45 08             	mov    0x8(%ebp),%eax
  4041f3:	8d 55 f0             	lea    -0x10(%ebp),%edx
  4041f6:	8b cf                	mov    %edi,%ecx
  4041f8:	89 46 48             	mov    %eax,0x48(%esi)
  4041fb:	e8 3d ed ff ff       	call   0x402f3d
  404200:	3b c3                	cmp    %ebx,%eax
  404202:	0f 85 6b 06 00 00    	jne    0x404873
  404208:	8b 5d 14             	mov    0x14(%ebp),%ebx
  40420b:	8b 45 f0             	mov    -0x10(%ebp),%eax
  40420e:	0b 45 f4             	or     -0xc(%ebp),%eax
  404211:	0f 84 53 02 00 00    	je     0x40446a
  404217:	8d 55 c8             	lea    -0x38(%ebp),%edx
  40421a:	8b cf                	mov    %edi,%ecx
  40421c:	e8 1c ed ff ff       	call   0x402f3d
  404221:	85 c0                	test   %eax,%eax
  404223:	0f 85 4a 06 00 00    	jne    0x404873
  404229:	8b 55 cc             	mov    -0x34(%ebp),%edx
  40422c:	8b 47 04             	mov    0x4(%edi),%eax
  40422f:	33 c9                	xor    %ecx,%ecx
  404231:	3b d1                	cmp    %ecx,%edx
  404233:	8b 55 c8             	mov    -0x38(%ebp),%edx
  404236:	0f 87 2c 06 00 00    	ja     0x404868
  40423c:	72 08                	jb     0x404246
  40423e:	3b d0                	cmp    %eax,%edx
  404240:	0f 87 22 06 00 00    	ja     0x404868
  404246:	83 7d f4 00          	cmpl   $0x0,-0xc(%ebp)
  40424a:	77 0b                	ja     0x404257
  40424c:	8b 4d f0             	mov    -0x10(%ebp),%ecx
  40424f:	81 f9 00 01 00 00    	cmp    $0x100,%ecx
  404255:	72 0c                	jb     0x404263
  404257:	2b c2                	sub    %edx,%eax
  404259:	01 17                	add    %edx,(%edi)
  40425b:	89 47 04             	mov    %eax,0x4(%edi)
  40425e:	e9 f0 01 00 00       	jmp    0x404453
  404263:	83 e9 0e             	sub    $0xe,%ecx
  404266:	0f 84 bf 01 00 00    	je     0x40442b
  40426c:	49                   	dec    %ecx
  40426d:	0f 84 a5 01 00 00    	je     0x404418
  404273:	49                   	dec    %ecx
  404274:	49                   	dec    %ecx
  404275:	0f 84 c8 00 00 00    	je     0x404343
  40427b:	49                   	dec    %ecx
  40427c:	0f 84 9f 00 00 00    	je     0x404321
  404282:	49                   	dec    %ecx
  404283:	49                   	dec    %ecx
  404284:	0f 84 85 00 00 00    	je     0x40430f
  40428a:	49                   	dec    %ecx
  40428b:	75 ca                	jne    0x404257
  40428d:	8d 4e 5c             	lea    0x5c(%esi),%ecx
  404290:	8b d3                	mov    %ebx,%edx
  404292:	e8 b5 e8 ff ff       	call   0x402b4c
  404297:	8b 55 08             	mov    0x8(%ebp),%edx
  40429a:	8d 46 5c             	lea    0x5c(%esi),%eax
  40429d:	53                   	push   %ebx
  40429e:	50                   	push   %eax
  40429f:	8b cf                	mov    %edi,%ecx
  4042a1:	e8 e4 f9 ff ff       	call   0x403c8a
  4042a6:	85 c0                	test   %eax,%eax
  4042a8:	0f 85 c5 05 00 00    	jne    0x404873
  4042ae:	8b 47 04             	mov    0x4(%edi),%eax
  4042b1:	85 c0                	test   %eax,%eax
  4042b3:	0f 84 af 05 00 00    	je     0x404868
  4042b9:	48                   	dec    %eax
  4042ba:	89 47 04             	mov    %eax,0x4(%edi)
  4042bd:	8b 07                	mov    (%edi),%eax
  4042bf:	8a 08                	mov    (%eax),%cl
  4042c1:	40                   	inc    %eax
  4042c2:	84 c9                	test   %cl,%cl
  4042c4:	89 07                	mov    %eax,(%edi)
  4042c6:	75 04                	jne    0x4042cc
  4042c8:	8b cf                	mov    %edi,%ecx
  4042ca:	eb 34                	jmp    0x404300
  4042cc:	8d 55 d4             	lea    -0x2c(%ebp),%edx
  4042cf:	8b cf                	mov    %edi,%ecx
  4042d1:	e8 0d ec ff ff       	call   0x402ee3
  4042d6:	85 c0                	test   %eax,%eax
  4042d8:	0f 85 95 05 00 00    	jne    0x404873
  4042de:	8b 4d 10             	mov    0x10(%ebp),%ecx
  4042e1:	8b 45 d4             	mov    -0x2c(%ebp),%eax
  4042e4:	3b 01                	cmp    (%ecx),%eax
  4042e6:	0f 83 7c 05 00 00    	jae    0x404868
  4042ec:	8b 4d 0c             	mov    0xc(%ebp),%ecx
  4042ef:	8d 04 c1             	lea    (%ecx,%eax,8),%eax
  4042f2:	8b 08                	mov    (%eax),%ecx
  4042f4:	89 4d f8             	mov    %ecx,-0x8(%ebp)
  4042f7:	8b 40 04             	mov    0x4(%eax),%eax
  4042fa:	89 45 fc             	mov    %eax,-0x4(%ebp)
  4042fd:	8d 4d f8             	lea    -0x8(%ebp),%ecx
  404300:	8b 55 08             	mov    0x8(%ebp),%edx
  404303:	8d 46 5c             	lea    0x5c(%esi),%eax
  404306:	53                   	push   %ebx
  404307:	50                   	push   %eax
  404308:	e8 21 fa ff ff       	call   0x403d2e
  40430d:	eb 27                	jmp    0x404336
  40430f:	8b 45 10             	mov    0x10(%ebp),%eax
  404312:	53                   	push   %ebx
  404313:	8b 55 08             	mov    0x8(%ebp),%edx
  404316:	8d 4e 64             	lea    0x64(%esi),%ecx
  404319:	ff 30                	push   (%eax)
  40431b:	ff 75 0c             	push   0xc(%ebp)
  40431e:	57                   	push   %edi
  40431f:	eb 10                	jmp    0x404331
  404321:	8b 45 10             	mov    0x10(%ebp),%eax
  404324:	53                   	push   %ebx
  404325:	8b 55 08             	mov    0x8(%ebp),%edx
  404328:	8d 4e 6c             	lea    0x6c(%esi),%ecx
  40432b:	ff 30                	push   (%eax)
  40432d:	ff 75 0c             	push   0xc(%ebp)
  404330:	57                   	push   %edi
  404331:	e8 0e 06 00 00       	call   0x404944
  404336:	85 c0                	test   %eax,%eax
  404338:	0f 85 35 05 00 00    	jne    0x404873
  40433e:	e9 10 01 00 00       	jmp    0x404453
  404343:	85 c0                	test   %eax,%eax
  404345:	0f 84 1d 05 00 00    	je     0x404868
  40434b:	48                   	dec    %eax
  40434c:	89 47 04             	mov    %eax,0x4(%edi)
  40434f:	8b 07                	mov    (%edi),%eax
  404351:	8a 08                	mov    (%eax),%cl
  404353:	40                   	inc    %eax
  404354:	84 c9                	test   %cl,%cl
  404356:	88 4d 1b             	mov    %cl,0x1b(%ebp)
  404359:	89 07                	mov    %eax,(%edi)
  40435b:	75 09                	jne    0x404366
  40435d:	4a                   	dec    %edx
  40435e:	89 45 e4             	mov    %eax,-0x1c(%ebp)
  404361:	89 55 14             	mov    %edx,0x14(%ebp)
  404364:	eb 31                	jmp    0x404397
  404366:	8d 55 ec             	lea    -0x14(%ebp),%edx
  404369:	8b cf                	mov    %edi,%ecx
  40436b:	e8 73 eb ff ff       	call   0x402ee3
  404370:	85 c0                	test   %eax,%eax
  404372:	0f 85 fb 04 00 00    	jne    0x404873
  404378:	8b 4d 10             	mov    0x10(%ebp),%ecx
  40437b:	8b 45 ec             	mov    -0x14(%ebp),%eax
  40437e:	3b 01                	cmp    (%ecx),%eax
  404380:	0f 83 e2 04 00 00    	jae    0x404868
  404386:	8b 4d 0c             	mov    0xc(%ebp),%ecx
  404389:	8d 04 c1             	lea    (%ecx,%eax,8),%eax
  40438c:	8b 08                	mov    (%eax),%ecx
  40438e:	8b 40 04             	mov    0x4(%eax),%eax
  404391:	89 4d e4             	mov    %ecx,-0x1c(%ebp)
  404394:	89 45 14             	mov    %eax,0x14(%ebp)
  404397:	f6 45 14 01          	testb  $0x1,0x14(%ebp)
  40439b:	0f 85 c7 04 00 00    	jne    0x404868
  4043a1:	8b 45 08             	mov    0x8(%ebp),%eax
  4043a4:	8b cb                	mov    %ebx,%ecx
  4043a6:	8d 14 85 04 00 00 00 	lea    0x4(,%eax,4),%edx
  4043ad:	ff 13                	call   *(%ebx)
  4043af:	85 c0                	test   %eax,%eax
  4043b1:	89 46 7c             	mov    %eax,0x7c(%esi)
  4043b4:	0f 84 b6 04 00 00    	je     0x404870
  4043ba:	83 7d 14 00          	cmpl   $0x0,0x14(%ebp)
  4043be:	75 09                	jne    0x4043c9
  4043c0:	83 a6 80 00 00 00 00 	andl   $0x0,0x80(%esi)
  4043c7:	eb 24                	jmp    0x4043ed
  4043c9:	8b 55 14             	mov    0x14(%ebp),%edx
  4043cc:	8b cb                	mov    %ebx,%ecx
  4043ce:	ff 13                	call   *(%ebx)
  4043d0:	85 c0                	test   %eax,%eax
  4043d2:	89 86 80 00 00 00    	mov    %eax,0x80(%esi)
  4043d8:	0f 84 92 04 00 00    	je     0x404870
  4043de:	ff 75 14             	push   0x14(%ebp)
  4043e1:	ff 75 e4             	push   -0x1c(%ebp)
  4043e4:	50                   	push   %eax
  4043e5:	e8 66 2e 00 00       	call   0x407250
  4043ea:	83 c4 0c             	add    $0xc,%esp
  4043ed:	ff 76 7c             	push   0x7c(%esi)
  4043f0:	8b 55 14             	mov    0x14(%ebp),%edx
  4043f3:	8b 8e 80 00 00 00    	mov    0x80(%esi),%ecx
  4043f9:	ff 75 08             	push   0x8(%ebp)
  4043fc:	e8 de 04 00 00       	call   0x4048df
  404401:	85 c0                	test   %eax,%eax
  404403:	0f 85 6a 04 00 00    	jne    0x404873
  404409:	38 45 1b             	cmp    %al,0x1b(%ebp)
  40440c:	75 45                	jne    0x404453
  40440e:	8b 45 14             	mov    0x14(%ebp),%eax
  404411:	29 47 04             	sub    %eax,0x4(%edi)
  404414:	01 07                	add    %eax,(%edi)
  404416:	eb 3b                	jmp    0x404453
  404418:	8b 55 e8             	mov    -0x18(%ebp),%edx
  40441b:	8d 45 d0             	lea    -0x30(%ebp),%eax
  40441e:	50                   	push   %eax
  40441f:	8b cf                	mov    %edi,%ecx
  404421:	e8 95 04 00 00       	call   0x4048bb
  404426:	e9 0b ff ff ff       	jmp    0x404336
  40442b:	8b 55 08             	mov    0x8(%ebp),%edx
  40442e:	8d 45 d8             	lea    -0x28(%ebp),%eax
  404431:	50                   	push   %eax
  404432:	8b cf                	mov    %edi,%ecx
  404434:	e8 82 04 00 00       	call   0x4048bb
  404439:	85 c0                	test   %eax,%eax
  40443b:	0f 85 32 04 00 00    	jne    0x404873
  404441:	8b 55 08             	mov    0x8(%ebp),%edx
  404444:	8b 4d d8             	mov    -0x28(%ebp),%ecx
  404447:	e8 15 f3 ff ff       	call   0x403761
  40444c:	83 65 d0 00          	andl   $0x0,-0x30(%ebp)
  404450:	89 45 e8             	mov    %eax,-0x18(%ebp)
  404453:	8d 55 f0             	lea    -0x10(%ebp),%edx
  404456:	8b cf                	mov    %edi,%ecx
  404458:	e8 e0 ea ff ff       	call   0x402f3d
  40445d:	85 c0                	test   %eax,%eax
  40445f:	0f 84 a6 fd ff ff    	je     0x40420b
  404465:	e9 09 04 00 00       	jmp    0x404873
  40446a:	8b 45 08             	mov    0x8(%ebp),%eax
  40446d:	2b 45 e8             	sub    -0x18(%ebp),%eax
  404470:	3b 45 a8             	cmp    -0x58(%ebp),%eax
  404473:	0f 85 ef 03 00 00    	jne    0x404868
  404479:	8d 55 f0             	lea    -0x10(%ebp),%edx
  40447c:	8b cf                	mov    %edi,%ecx
  40447e:	e8 ba ea ff ff       	call   0x402f3d
  404483:	85 c0                	test   %eax,%eax
  404485:	0f 85 e8 03 00 00    	jne    0x404873
  40448b:	8b 45 f0             	mov    -0x10(%ebp),%eax
  40448e:	0b 45 f4             	or     -0xc(%ebp),%eax
  404491:	74 11                	je     0x4044a4
  404493:	8b cf                	mov    %edi,%ecx
  404495:	e8 e5 f1 ff ff       	call   0x40367f
  40449a:	85 c0                	test   %eax,%eax
  40449c:	0f 85 d1 03 00 00    	jne    0x404873
  4044a2:	eb d5                	jmp    0x404479
  4044a4:	8b 46 04             	mov    0x4(%esi),%eax
  4044a7:	80 65 1b 00          	andb   $0x0,0x1b(%ebp)
  4044ab:	80 65 0f 00          	andb   $0x0,0xf(%ebp)
  4044af:	33 ff                	xor    %edi,%edi
  4044b1:	8d 14 85 04 00 00 00 	lea    0x4(,%eax,4),%edx
  4044b8:	8b cb                	mov    %ebx,%ecx
  4044ba:	89 7d e4             	mov    %edi,-0x1c(%ebp)
  4044bd:	89 7d 14             	mov    %edi,0x14(%ebp)
  4044c0:	89 7d e0             	mov    %edi,-0x20(%ebp)
  4044c3:	89 7d ec             	mov    %edi,-0x14(%ebp)
  4044c6:	89 7d f8             	mov    %edi,-0x8(%ebp)
  4044c9:	89 7d fc             	mov    %edi,-0x4(%ebp)
  4044cc:	89 7d d4             	mov    %edi,-0x2c(%ebp)
  4044cf:	89 7d dc             	mov    %edi,-0x24(%ebp)
  4044d2:	89 7d e8             	mov    %edi,-0x18(%ebp)
  4044d5:	c6 45 13 80          	movb   $0x80,0x13(%ebp)
  4044d9:	ff 13                	call   *(%ebx)
  4044db:	3b c7                	cmp    %edi,%eax
  4044dd:	89 46 74             	mov    %eax,0x74(%esi)
  4044e0:	0f 84 8a 03 00 00    	je     0x404870
  4044e6:	8b 46 48             	mov    0x48(%esi),%eax
  4044e9:	3b c7                	cmp    %edi,%eax
  4044eb:	75 05                	jne    0x4044f2
  4044ed:	89 7e 78             	mov    %edi,0x78(%esi)
  4044f0:	eb 14                	jmp    0x404506
  4044f2:	8b d0                	mov    %eax,%edx
  4044f4:	8b cb                	mov    %ebx,%ecx
  4044f6:	c1 e2 02             	shl    $0x2,%edx
  4044f9:	ff 13                	call   *(%ebx)
  4044fb:	3b c7                	cmp    %edi,%eax
  4044fd:	89 46 78             	mov    %eax,0x78(%esi)
  404500:	0f 84 6a 03 00 00    	je     0x404870
  404506:	8b 46 48             	mov    0x48(%esi),%eax
  404509:	8b cb                	mov    %ebx,%ecx
  40450b:	8d 14 c5 08 00 00 00 	lea    0x8(,%eax,8),%edx
  404512:	ff 13                	call   *(%ebx)
  404514:	3b c7                	cmp    %edi,%eax
  404516:	89 46 4c             	mov    %eax,0x4c(%esi)
  404519:	0f 84 51 03 00 00    	je     0x404870
  40451f:	8b 46 48             	mov    0x48(%esi),%eax
  404522:	8d 50 07             	lea    0x7(%eax),%edx
  404525:	f7 c2 f8 ff ff ff    	test   $0xfffffff8,%edx
  40452b:	75 05                	jne    0x404532
  40452d:	89 7e 50             	mov    %edi,0x50(%esi)
  404530:	eb 12                	jmp    0x404544
  404532:	c1 ea 03             	shr    $0x3,%edx
  404535:	8b cb                	mov    %ebx,%ecx
  404537:	ff 13                	call   *(%ebx)
  404539:	3b c7                	cmp    %edi,%eax
  40453b:	89 46 50             	mov    %eax,0x50(%esi)
  40453e:	0f 84 2c 03 00 00    	je     0x404870
  404544:	8b 56 48             	mov    0x48(%esi),%edx
  404547:	8d 4e 54             	lea    0x54(%esi),%ecx
  40454a:	53                   	push   %ebx
  40454b:	e8 2a 03 00 00       	call   0x40487a
  404550:	3b c7                	cmp    %edi,%eax
  404552:	0f 85 1b 03 00 00    	jne    0x404873
  404558:	39 7d c4             	cmp    %edi,-0x3c(%ebp)
  40455b:	74 26                	je     0x404583
  40455d:	8b 4d c0             	mov    -0x40(%ebp),%ecx
  404560:	ff 4d c4             	decl   -0x3c(%ebp)
  404563:	8a 01                	mov    (%ecx),%al
  404565:	41                   	inc    %ecx
  404566:	84 c0                	test   %al,%al
  404568:	89 4d c0             	mov    %ecx,-0x40(%ebp)
  40456b:	74 05                	je     0x404572
  40456d:	89 4d dc             	mov    %ecx,-0x24(%ebp)
  404570:	eb 11                	jmp    0x404583
  404572:	8b 45 ac             	mov    -0x54(%ebp),%eax
  404575:	89 4d d4             	mov    %ecx,-0x2c(%ebp)
  404578:	83 c0 07             	add    $0x7,%eax
  40457b:	c1 e8 03             	shr    $0x3,%eax
  40457e:	03 c1                	add    %ecx,%eax
  404580:	89 45 dc             	mov    %eax,-0x24(%ebp)
  404583:	8b 5d f8             	mov    -0x8(%ebp),%ebx
  404586:	33 ff                	xor    %edi,%edi
  404588:	39 7d 08             	cmp    %edi,0x8(%ebp)
  40458b:	0f 86 84 02 00 00    	jbe    0x404815
  404591:	80 7d 13 00          	cmpb   $0x0,0x13(%ebp)
  404595:	75 24                	jne    0x4045bb
  404597:	8b 4e 50             	mov    0x50(%esi),%ecx
  40459a:	8a 55 1b             	mov    0x1b(%ebp),%dl
  40459d:	8d 47 ff             	lea    -0x1(%edi),%eax
  4045a0:	80 65 1b 00          	andb   $0x0,0x1b(%ebp)
  4045a4:	c1 e8 03             	shr    $0x3,%eax
  4045a7:	c6 45 13 80          	movb   $0x80,0x13(%ebp)
  4045ab:	88 14 01             	mov    %dl,(%ecx,%eax,1)
  4045ae:	8b 4e 54             	mov    0x54(%esi),%ecx
  4045b1:	8a 55 0f             	mov    0xf(%ebp),%dl
  4045b4:	80 65 0f 00          	andb   $0x0,0xf(%ebp)
  4045b8:	88 14 01             	mov    %dl,(%ecx,%eax,1)
  4045bb:	8b 46 4c             	mov    0x4c(%esi),%eax
  4045be:	8b 4d fc             	mov    -0x4(%ebp),%ecx
  4045c1:	89 1c f8             	mov    %ebx,(%eax,%edi,8)
  4045c4:	89 4c f8 04          	mov    %ecx,0x4(%eax,%edi,8)
  4045c8:	8b 46 58             	mov    0x58(%esi),%eax
  4045cb:	83 24 b8 00          	andl   $0x0,(%eax,%edi,4)
  4045cf:	8b 45 d8             	mov    -0x28(%ebp),%eax
  4045d2:	85 c0                	test   %eax,%eax
  4045d4:	74 5c                	je     0x404632
  4045d6:	8b cf                	mov    %edi,%ecx
  4045d8:	ba 80 00 00 00       	mov    $0x80,%edx
  4045dd:	83 e1 07             	and    $0x7,%ecx
  4045e0:	d3 fa                	sar    %cl,%edx
  4045e2:	8b cf                	mov    %edi,%ecx
  4045e4:	c1 e9 03             	shr    $0x3,%ecx
  4045e7:	8a 04 01             	mov    (%ecx,%eax,1),%al
  4045ea:	84 d0                	test   %dl,%al
  4045ec:	74 44                	je     0x404632
  4045ee:	8b 45 d0             	mov    -0x30(%ebp),%eax
  4045f1:	85 c0                	test   %eax,%eax
  4045f3:	74 25                	je     0x40461a
  4045f5:	8b 4d e4             	mov    -0x1c(%ebp),%ecx
  4045f8:	ba 80 00 00 00       	mov    $0x80,%edx
  4045fd:	83 e1 07             	and    $0x7,%ecx
  404600:	d3 fa                	sar    %cl,%edx
  404602:	8b 4d e4             	mov    -0x1c(%ebp),%ecx
  404605:	c1 e9 03             	shr    $0x3,%ecx
  404608:	8a 04 01             	mov    (%ecx,%eax,1),%al
  40460b:	84 d0                	test   %dl,%al
  40460d:	75 06                	jne    0x404615
  40460f:	8a 45 13             	mov    0x13(%ebp),%al
  404612:	08 45 1b             	or     %al,0x1b(%ebp)
  404615:	ff 45 e4             	incl   -0x1c(%ebp)
  404618:	eb 06                	jmp    0x404620
  40461a:	8a 45 13             	mov    0x13(%ebp),%al
  40461d:	08 45 1b             	or     %al,0x1b(%ebp)
  404620:	83 7d e0 00          	cmpl   $0x0,-0x20(%ebp)
  404624:	75 75                	jne    0x40469b
  404626:	8b 46 78             	mov    0x78(%esi),%eax
  404629:	83 0c b8 ff          	orl    $0xffffffff,(%eax,%edi,4)
  40462d:	e9 b8 01 00 00       	jmp    0x4047ea
  404632:	83 7d e0 00          	cmpl   $0x0,-0x20(%ebp)
  404636:	75 63                	jne    0x40469b
  404638:	8b 45 14             	mov    0x14(%ebp),%eax
  40463b:	3b 46 04             	cmp    0x4(%esi),%eax
  40463e:	0f 83 24 02 00 00    	jae    0x404868
  404644:	8b 4e 74             	mov    0x74(%esi),%ecx
  404647:	89 3c 81             	mov    %edi,(%ecx,%eax,4)
  40464a:	83 7d b0 00          	cmpl   $0x0,-0x50(%ebp)
  40464e:	c7 45 ec 01 00 00 00 	movl   $0x1,-0x14(%ebp)
  404655:	74 13                	je     0x40466a
  404657:	8d 55 ec             	lea    -0x14(%ebp),%edx
  40465a:	8d 4d b0             	lea    -0x50(%ebp),%ecx
  40465d:	e8 81 e8 ff ff       	call   0x402ee3
  404662:	85 c0                	test   %eax,%eax
  404664:	0f 85 09 02 00 00    	jne    0x404873
  40466a:	8b 45 ec             	mov    -0x14(%ebp),%eax
  40466d:	85 c0                	test   %eax,%eax
  40466f:	89 45 e0             	mov    %eax,-0x20(%ebp)
  404672:	75 27                	jne    0x40469b
  404674:	8b 55 14             	mov    0x14(%ebp),%edx
  404677:	8b ce                	mov    %esi,%ecx
  404679:	e8 b3 e9 ff ff       	call   0x403031
  40467e:	03 d8                	add    %eax,%ebx
  404680:	11 55 fc             	adc    %edx,-0x4(%ebp)
  404683:	39 55 fc             	cmp    %edx,-0x4(%ebp)
  404686:	0f 82 dc 01 00 00    	jb     0x404868
  40468c:	77 08                	ja     0x404696
  40468e:	3b d8                	cmp    %eax,%ebx
  404690:	0f 82 d2 01 00 00    	jb     0x404868
  404696:	ff 45 14             	incl   0x14(%ebp)
  404699:	eb 9d                	jmp    0x404638
  40469b:	8b 46 78             	mov    0x78(%esi),%eax
  40469e:	8b 4d 14             	mov    0x14(%ebp),%ecx
  4046a1:	89 0c b8             	mov    %ecx,(%eax,%edi,4)
  4046a4:	8b 45 d8             	mov    -0x28(%ebp),%eax
  4046a7:	85 c0                	test   %eax,%eax
  4046a9:	74 1c                	je     0x4046c7
  4046ab:	8b cf                	mov    %edi,%ecx
  4046ad:	ba 80 00 00 00       	mov    $0x80,%edx
  4046b2:	83 e1 07             	and    $0x7,%ecx
  4046b5:	d3 fa                	sar    %cl,%edx
  4046b7:	8b cf                	mov    %edi,%ecx
  4046b9:	c1 e9 03             	shr    $0x3,%ecx
  4046bc:	8a 04 01             	mov    (%ecx,%eax,1),%al
  4046bf:	84 d0                	test   %dl,%al
  4046c1:	0f 85 23 01 00 00    	jne    0x4047ea
  4046c7:	ff 4d e0             	decl   -0x20(%ebp)
  4046ca:	0f 85 a3 00 00 00    	jne    0x404773
  4046d0:	8b 55 14             	mov    0x14(%ebp),%edx
  4046d3:	8b ce                	mov    %esi,%ecx
  4046d5:	e8 57 e9 ff ff       	call   0x403031
  4046da:	8b 4d 14             	mov    0x14(%ebp),%ecx
  4046dd:	89 45 f0             	mov    %eax,-0x10(%ebp)
  4046e0:	8b 46 74             	mov    0x74(%esi),%eax
  4046e3:	89 55 f4             	mov    %edx,-0xc(%ebp)
  4046e6:	8b 56 4c             	mov    0x4c(%esi),%edx
  4046e9:	8b 04 88             	mov    (%eax,%ecx,4),%eax
  4046ec:	8b 0c c2             	mov    (%edx,%eax,8),%ecx
  4046ef:	2b d9                	sub    %ecx,%ebx
  4046f1:	8b 44 c2 04          	mov    0x4(%edx,%eax,8),%eax
  4046f5:	8b 55 fc             	mov    -0x4(%ebp),%edx
  4046f8:	1b d0                	sbb    %eax,%edx
  4046fa:	89 5d a0             	mov    %ebx,-0x60(%ebp)
  4046fd:	39 55 f4             	cmp    %edx,-0xc(%ebp)
  404700:	0f 82 62 01 00 00    	jb     0x404868
  404706:	8b 55 f0             	mov    -0x10(%ebp),%edx
  404709:	77 08                	ja     0x404713
  40470b:	3b d3                	cmp    %ebx,%edx
  40470d:	0f 82 55 01 00 00    	jb     0x404868
  404713:	03 ca                	add    %edx,%ecx
  404715:	13 45 f4             	adc    -0xc(%ebp),%eax
  404718:	89 4d f8             	mov    %ecx,-0x8(%ebp)
  40471b:	3b 45 f4             	cmp    -0xc(%ebp),%eax
  40471e:	89 45 fc             	mov    %eax,-0x4(%ebp)
  404721:	0f 82 41 01 00 00    	jb     0x404868
  404727:	77 08                	ja     0x404731
  404729:	3b ca                	cmp    %edx,%ecx
  40472b:	0f 82 37 01 00 00    	jb     0x404868
  404731:	83 7d ec 01          	cmpl   $0x1,-0x14(%ebp)
  404735:	75 34                	jne    0x40476b
  404737:	8b 46 0c             	mov    0xc(%esi),%eax
  40473a:	85 c0                	test   %eax,%eax
  40473c:	74 2d                	je     0x40476b
  40473e:	8b 55 14             	mov    0x14(%ebp),%edx
  404741:	bb 80 00 00 00       	mov    $0x80,%ebx
  404746:	8b ca                	mov    %edx,%ecx
  404748:	83 e1 07             	and    $0x7,%ecx
  40474b:	d3 fb                	sar    %cl,%ebx
  40474d:	8b ca                	mov    %edx,%ecx
  40474f:	c1 e9 03             	shr    $0x3,%ecx
  404752:	8a 04 01             	mov    (%ecx,%eax,1),%al
  404755:	84 d8                	test   %bl,%al
  404757:	74 12                	je     0x40476b
  404759:	8b 46 10             	mov    0x10(%esi),%eax
  40475c:	8b 4e 58             	mov    0x58(%esi),%ecx
  40475f:	8b 04 90             	mov    (%eax,%edx,4),%eax
  404762:	89 04 b9             	mov    %eax,(%ecx,%edi,4)
  404765:	8a 45 13             	mov    0x13(%ebp),%al
  404768:	08 45 0f             	or     %al,0xf(%ebp)
  40476b:	ff 45 14             	incl   0x14(%ebp)
  40476e:	8b 5d f8             	mov    -0x8(%ebp),%ebx
  404771:	eb 30                	jmp    0x4047a3
  404773:	8d 55 c8             	lea    -0x38(%ebp),%edx
  404776:	8d 4d b8             	lea    -0x48(%ebp),%ecx
  404779:	e8 bf e7 ff ff       	call   0x402f3d
  40477e:	85 c0                	test   %eax,%eax
  404780:	0f 85 ed 00 00 00    	jne    0x404873
  404786:	03 5d c8             	add    -0x38(%ebp),%ebx
  404789:	8b 45 cc             	mov    -0x34(%ebp),%eax
  40478c:	11 45 fc             	adc    %eax,-0x4(%ebp)
  40478f:	39 45 fc             	cmp    %eax,-0x4(%ebp)
  404792:	0f 82 d0 00 00 00    	jb     0x404868
  404798:	77 09                	ja     0x4047a3
  40479a:	3b 5d c8             	cmp    -0x38(%ebp),%ebx
  40479d:	0f 82 c5 00 00 00    	jb     0x404868
  4047a3:	8a 45 0f             	mov    0xf(%ebp),%al
  4047a6:	84 45 13             	test   %al,0x13(%ebp)
  4047a9:	75 3f                	jne    0x4047ea
  4047ab:	83 7d dc 00          	cmpl   $0x0,-0x24(%ebp)
  4047af:	74 39                	je     0x4047ea
  4047b1:	8b 45 d4             	mov    -0x2c(%ebp),%eax
  4047b4:	85 c0                	test   %eax,%eax
  4047b6:	74 1a                	je     0x4047d2
  4047b8:	8b 4d e8             	mov    -0x18(%ebp),%ecx
  4047bb:	ba 80 00 00 00       	mov    $0x80,%edx
  4047c0:	83 e1 07             	and    $0x7,%ecx
  4047c3:	d3 fa                	sar    %cl,%edx
  4047c5:	8b 4d e8             	mov    -0x18(%ebp),%ecx
  4047c8:	c1 e9 03             	shr    $0x3,%ecx
  4047cb:	8a 04 01             	mov    (%ecx,%eax,1),%al
  4047ce:	84 d0                	test   %dl,%al
  4047d0:	74 15                	je     0x4047e7
  4047d2:	8b 4d dc             	mov    -0x24(%ebp),%ecx
  4047d5:	8b 46 58             	mov    0x58(%esi),%eax
  4047d8:	83 45 dc 04          	addl   $0x4,-0x24(%ebp)
  4047dc:	8b 09                	mov    (%ecx),%ecx
  4047de:	89 0c b8             	mov    %ecx,(%eax,%edi,4)
  4047e1:	8a 45 13             	mov    0x13(%ebp),%al
  4047e4:	08 45 0f             	or     %al,0xf(%ebp)
  4047e7:	ff 45 e8             	incl   -0x18(%ebp)
  4047ea:	d0 6d 13             	shrb   0x13(%ebp)
  4047ed:	47                   	inc    %edi
  4047ee:	3b 7d 08             	cmp    0x8(%ebp),%edi
  4047f1:	0f 82 9a fd ff ff    	jb     0x404591
  4047f7:	80 7d 13 80          	cmpb   $0x80,0x13(%ebp)
  4047fb:	74 18                	je     0x404815
  4047fd:	8b 4e 50             	mov    0x50(%esi),%ecx
  404800:	8a 55 1b             	mov    0x1b(%ebp),%dl
  404803:	8d 47 ff             	lea    -0x1(%edi),%eax
  404806:	c1 e8 03             	shr    $0x3,%eax
  404809:	88 14 01             	mov    %dl,(%ecx,%eax,1)
  40480c:	8b 4e 54             	mov    0x54(%esi),%ecx
  40480f:	8a 55 0f             	mov    0xf(%ebp),%dl
  404812:	88 14 01             	mov    %dl,(%ecx,%eax,1)
  404815:	8b 46 4c             	mov    0x4c(%esi),%eax
  404818:	8b 4d fc             	mov    -0x4(%ebp),%ecx
  40481b:	83 7d e0 00          	cmpl   $0x0,-0x20(%ebp)
  40481f:	89 1c f8             	mov    %ebx,(%eax,%edi,8)
  404822:	89 4c f8 04          	mov    %ecx,0x4(%eax,%edi,8)
  404826:	75 40                	jne    0x404868
  404828:	8b 4e 74             	mov    0x74(%esi),%ecx
  40482b:	8b 45 14             	mov    0x14(%ebp),%eax
  40482e:	89 3c 81             	mov    %edi,(%ecx,%eax,4)
  404831:	3b 46 04             	cmp    0x4(%esi),%eax
  404834:	73 26                	jae    0x40485c
  404836:	83 7d b0 00          	cmpl   $0x0,-0x50(%ebp)
  40483a:	74 2c                	je     0x404868
  40483c:	8d 55 ec             	lea    -0x14(%ebp),%edx
  40483f:	8d 4d b0             	lea    -0x50(%ebp),%ecx
  404842:	e8 9c e6 ff ff       	call   0x402ee3
  404847:	85 c0                	test   %eax,%eax
  404849:	75 28                	jne    0x404873
  40484b:	39 45 ec             	cmp    %eax,-0x14(%ebp)
  40484e:	75 18                	jne    0x404868
  404850:	8b 45 14             	mov    0x14(%ebp),%eax
  404853:	8b 4e 74             	mov    0x74(%esi),%ecx
  404856:	40                   	inc    %eax
  404857:	89 45 14             	mov    %eax,0x14(%ebp)
  40485a:	eb d2                	jmp    0x40482e
  40485c:	83 7d b0 00          	cmpl   $0x0,-0x50(%ebp)
  404860:	74 0a                	je     0x40486c
  404862:	83 7d b4 00          	cmpl   $0x0,-0x4c(%ebp)
  404866:	74 04                	je     0x40486c
  404868:	6a 10                	push   $0x10
  40486a:	eb 06                	jmp    0x404872
  40486c:	33 c0                	xor    %eax,%eax
  40486e:	eb 03                	jmp    0x404873
  404870:	6a 02                	push   $0x2
  404872:	58                   	pop    %eax
  404873:	5f                   	pop    %edi
  404874:	5e                   	pop    %esi
  404875:	5b                   	pop    %ebx
  404876:	c9                   	leave  
  404877:	c2 14 00             	ret    $0x14
  40487a:	53                   	push   %ebx
  40487b:	8b da                	mov    %edx,%ebx
  40487d:	56                   	push   %esi
  40487e:	57                   	push   %edi
  40487f:	85 db                	test   %ebx,%ebx
  404881:	8b f1                	mov    %ecx,%esi
  404883:	75 0d                	jne    0x404892
  404885:	21 16                	and    %edx,(%esi)
  404887:	21 56 04             	and    %edx,0x4(%esi)
  40488a:	33 c0                	xor    %eax,%eax
  40488c:	5f                   	pop    %edi
  40488d:	5e                   	pop    %esi
  40488e:	5b                   	pop    %ebx
  40488f:	c2 04 00             	ret    $0x4
  404892:	8b 7c 24 10          	mov    0x10(%esp),%edi
  404896:	8d 53 07             	lea    0x7(%ebx),%edx
  404899:	c1 ea 03             	shr    $0x3,%edx
  40489c:	8b cf                	mov    %edi,%ecx
  40489e:	ff 17                	call   *(%edi)
  4048a0:	85 c0                	test   %eax,%eax
  4048a2:	89 06                	mov    %eax,(%esi)
  4048a4:	74 10                	je     0x4048b6
  4048a6:	8b d3                	mov    %ebx,%edx
  4048a8:	8b cf                	mov    %edi,%ecx
  4048aa:	c1 e2 02             	shl    $0x2,%edx
  4048ad:	ff 17                	call   *(%edi)
  4048af:	85 c0                	test   %eax,%eax
  4048b1:	89 46 04             	mov    %eax,0x4(%esi)
  4048b4:	75 d4                	jne    0x40488a
  4048b6:	6a 02                	push   $0x2
  4048b8:	58                   	pop    %eax
  4048b9:	eb d1                	jmp    0x40488c
  4048bb:	8d 42 07             	lea    0x7(%edx),%eax
  4048be:	c1 e8 03             	shr    $0x3,%eax
  4048c1:	3b 41 04             	cmp    0x4(%ecx),%eax
  4048c4:	76 05                	jbe    0x4048cb
  4048c6:	6a 10                	push   $0x10
  4048c8:	58                   	pop    %eax
  4048c9:	eb 11                	jmp    0x4048dc
  4048cb:	8b 11                	mov    (%ecx),%edx
  4048cd:	56                   	push   %esi
  4048ce:	8b 74 24 08          	mov    0x8(%esp),%esi
  4048d2:	89 16                	mov    %edx,(%esi)
  4048d4:	29 41 04             	sub    %eax,0x4(%ecx)
  4048d7:	01 01                	add    %eax,(%ecx)
  4048d9:	33 c0                	xor    %eax,%eax
  4048db:	5e                   	pop    %esi
  4048dc:	c2 04 00             	ret    $0x4
  4048df:	53                   	push   %ebx
  4048e0:	56                   	push   %esi
  4048e1:	8b 74 24 10          	mov    0x10(%esp),%esi
  4048e5:	33 db                	xor    %ebx,%ebx
  4048e7:	33 c0                	xor    %eax,%eax
  4048e9:	57                   	push   %edi
  4048ea:	89 1e                	mov    %ebx,(%esi)
  4048ec:	83 c6 04             	add    $0x4,%esi
  4048ef:	39 5c 24 10          	cmp    %ebx,0x10(%esp)
  4048f3:	75 04                	jne    0x4048f9
  4048f5:	8b c2                	mov    %edx,%eax
  4048f7:	eb 42                	jmp    0x40493b
  4048f9:	83 fa 02             	cmp    $0x2,%edx
  4048fc:	72 32                	jb     0x404930
  4048fe:	38 5c 11 fe          	cmp    %bl,-0x2(%ecx,%edx,1)
  404902:	75 2c                	jne    0x404930
  404904:	38 5c 11 ff          	cmp    %bl,-0x1(%ecx,%edx,1)
  404908:	75 26                	jne    0x404930
  40490a:	3b d3                	cmp    %ebx,%edx
  40490c:	74 22                	je     0x404930
  40490e:	03 c1                	add    %ecx,%eax
  404910:	66 39 18             	cmp    %bx,(%eax)
  404913:	74 04                	je     0x404919
  404915:	40                   	inc    %eax
  404916:	40                   	inc    %eax
  404917:	eb f7                	jmp    0x404910
  404919:	2b c1                	sub    %ecx,%eax
  40491b:	40                   	inc    %eax
  40491c:	40                   	inc    %eax
  40491d:	8b f8                	mov    %eax,%edi
  40491f:	d1 ef                	shr    %edi
  404921:	89 3e                	mov    %edi,(%esi)
  404923:	83 c6 04             	add    $0x4,%esi
  404926:	ff 4c 24 10          	decl   0x10(%esp)
  40492a:	74 0d                	je     0x404939
  40492c:	3b c2                	cmp    %edx,%eax
  40492e:	75 de                	jne    0x40490e
  404930:	6a 10                	push   $0x10
  404932:	58                   	pop    %eax
  404933:	5f                   	pop    %edi
  404934:	5e                   	pop    %esi
  404935:	5b                   	pop    %ebx
  404936:	c2 08 00             	ret    $0x8
  404939:	2b c2                	sub    %edx,%eax
  40493b:	f7 d8                	neg    %eax
  40493d:	1b c0                	sbb    %eax,%eax
  40493f:	83 e0 10             	and    $0x10,%eax
  404942:	eb ef                	jmp    0x404933
  404944:	55                   	push   %ebp
  404945:	8b ec                	mov    %esp,%ebp
  404947:	83 ec 10             	sub    $0x10,%esp
  40494a:	53                   	push   %ebx
  40494b:	56                   	push   %esi
  40494c:	8b 75 08             	mov    0x8(%ebp),%esi
  40494f:	57                   	push   %edi
  404950:	ff 75 14             	push   0x14(%ebp)
  404953:	8b f9                	mov    %ecx,%edi
  404955:	8b ce                	mov    %esi,%ecx
  404957:	89 55 fc             	mov    %edx,-0x4(%ebp)
  40495a:	57                   	push   %edi
  40495b:	e8 2a f3 ff ff       	call   0x403c8a
  404960:	85 c0                	test   %eax,%eax
  404962:	0f 85 d7 00 00 00    	jne    0x404a3f
  404968:	8b 46 04             	mov    0x4(%esi),%eax
  40496b:	85 c0                	test   %eax,%eax
  40496d:	0f 84 d3 00 00 00    	je     0x404a46
  404973:	48                   	dec    %eax
  404974:	89 46 04             	mov    %eax,0x4(%esi)
  404977:	8b 06                	mov    (%esi),%eax
  404979:	8a 08                	mov    (%eax),%cl
  40497b:	40                   	inc    %eax
  40497c:	84 c9                	test   %cl,%cl
  40497e:	88 4d 0b             	mov    %cl,0xb(%ebp)
  404981:	89 06                	mov    %eax,(%esi)
  404983:	75 07                	jne    0x40498c
  404985:	8b d8                	mov    %eax,%ebx
  404987:	8b 46 04             	mov    0x4(%esi),%eax
  40498a:	eb 2a                	jmp    0x4049b6
  40498c:	8d 55 f8             	lea    -0x8(%ebp),%edx
  40498f:	8b ce                	mov    %esi,%ecx
  404991:	e8 4d e5 ff ff       	call   0x402ee3
  404996:	85 c0                	test   %eax,%eax
  404998:	0f 85 a1 00 00 00    	jne    0x404a3f
  40499e:	8b 45 f8             	mov    -0x8(%ebp),%eax
  4049a1:	3b 45 10             	cmp    0x10(%ebp),%eax
  4049a4:	0f 83 9c 00 00 00    	jae    0x404a46
  4049aa:	8b 4d 0c             	mov    0xc(%ebp),%ecx
  4049ad:	8b 1c c1             	mov    (%ecx,%eax,8),%ebx
  4049b0:	8d 04 c1             	lea    (%ecx,%eax,8),%eax
  4049b3:	8b 40 04             	mov    0x4(%eax),%eax
  4049b6:	89 45 f4             	mov    %eax,-0xc(%ebp)
  4049b9:	8b 45 fc             	mov    -0x4(%ebp),%eax
  4049bc:	85 c0                	test   %eax,%eax
  4049be:	75 45                	jne    0x404a05
  4049c0:	21 47 04             	and    %eax,0x4(%edi)
  4049c3:	83 65 14 00          	andl   $0x0,0x14(%ebp)
  4049c7:	8b 47 04             	mov    0x4(%edi),%eax
  4049ca:	83 7d fc 00          	cmpl   $0x0,-0x4(%ebp)
  4049ce:	8b 3f                	mov    (%edi),%edi
  4049d0:	76 5d                	jbe    0x404a2f
  4049d2:	8b 4d 14             	mov    0x14(%ebp),%ecx
  4049d5:	ba 80 00 00 00       	mov    $0x80,%edx
  4049da:	83 e1 07             	and    $0x7,%ecx
  4049dd:	d3 fa                	sar    %cl,%edx
  4049df:	8b 4d 14             	mov    0x14(%ebp),%ecx
  4049e2:	c1 e9 03             	shr    $0x3,%ecx
  4049e5:	8a 0c 39             	mov    (%ecx,%edi,1),%cl
  4049e8:	84 d1                	test   %dl,%cl
  4049ea:	74 2e                	je     0x404a1a
  4049ec:	83 7d f4 08          	cmpl   $0x8,-0xc(%ebp)
  4049f0:	72 54                	jb     0x404a46
  4049f2:	8b 0b                	mov    (%ebx),%ecx
  4049f4:	83 6d f4 08          	subl   $0x8,-0xc(%ebp)
  4049f8:	89 08                	mov    %ecx,(%eax)
  4049fa:	8b 4b 04             	mov    0x4(%ebx),%ecx
  4049fd:	89 48 04             	mov    %ecx,0x4(%eax)
  404a00:	83 c3 08             	add    $0x8,%ebx
  404a03:	eb 1c                	jmp    0x404a21
  404a05:	8b 4d 14             	mov    0x14(%ebp),%ecx
  404a08:	8b d0                	mov    %eax,%edx
  404a0a:	c1 e2 03             	shl    $0x3,%edx
  404a0d:	ff 11                	call   *(%ecx)
  404a0f:	85 c0                	test   %eax,%eax
  404a11:	89 47 04             	mov    %eax,0x4(%edi)
  404a14:	75 ad                	jne    0x4049c3
  404a16:	6a 02                	push   $0x2
  404a18:	eb 2e                	jmp    0x404a48
  404a1a:	83 20 00             	andl   $0x0,(%eax)
  404a1d:	83 60 04 00          	andl   $0x0,0x4(%eax)
  404a21:	ff 45 14             	incl   0x14(%ebp)
  404a24:	83 c0 08             	add    $0x8,%eax
  404a27:	8b 4d 14             	mov    0x14(%ebp),%ecx
  404a2a:	3b 4d fc             	cmp    -0x4(%ebp),%ecx
  404a2d:	72 a3                	jb     0x4049d2
  404a2f:	80 7d 0b 00          	cmpb   $0x0,0xb(%ebp)
  404a33:	75 08                	jne    0x404a3d
  404a35:	8b 45 f4             	mov    -0xc(%ebp),%eax
  404a38:	89 1e                	mov    %ebx,(%esi)
  404a3a:	89 46 04             	mov    %eax,0x4(%esi)
  404a3d:	33 c0                	xor    %eax,%eax
  404a3f:	5f                   	pop    %edi
  404a40:	5e                   	pop    %esi
  404a41:	5b                   	pop    %ebx
  404a42:	c9                   	leave  
  404a43:	c2 10 00             	ret    $0x10
  404a46:	6a 10                	push   $0x10
  404a48:	58                   	pop    %eax
  404a49:	eb f4                	jmp    0x404a3f
  404a4b:	55                   	push   %ebp
  404a4c:	8b ec                	mov    %esp,%ebp
  404a4e:	83 ec 14             	sub    $0x14,%esp
  404a51:	53                   	push   %ebx
  404a52:	56                   	push   %esi
  404a53:	57                   	push   %edi
  404a54:	8b 7d 08             	mov    0x8(%ebp),%edi
  404a57:	8b f1                	mov    %ecx,%esi
  404a59:	8b c7                	mov    %edi,%eax
  404a5b:	c1 e0 02             	shl    $0x2,%eax
  404a5e:	8b 4e 78             	mov    0x78(%esi),%ecx
  404a61:	89 55 fc             	mov    %edx,-0x4(%ebp)
  404a64:	8b 55 1c             	mov    0x1c(%ebp),%edx
  404a67:	89 45 f4             	mov    %eax,-0xc(%ebp)
  404a6a:	8b 1c 01             	mov    (%ecx,%eax,1),%ebx
  404a6d:	8b 4d 18             	mov    0x18(%ebp),%ecx
  404a70:	33 c0                	xor    %eax,%eax
  404a72:	83 fb ff             	cmp    $0xffffffff,%ebx
  404a75:	89 01                	mov    %eax,(%ecx)
  404a77:	89 45 08             	mov    %eax,0x8(%ebp)
  404a7a:	89 02                	mov    %eax,(%edx)
  404a7c:	75 20                	jne    0x404a9e
  404a7e:	8b 75 10             	mov    0x10(%ebp),%esi
  404a81:	8b 4d 20             	mov    0x20(%ebp),%ecx
  404a84:	8b 16                	mov    (%esi),%edx
  404a86:	ff 51 04             	call   *0x4(%ecx)
  404a89:	8b 45 0c             	mov    0xc(%ebp),%eax
  404a8c:	09 18                	or     %ebx,(%eax)
  404a8e:	8b 45 14             	mov    0x14(%ebp),%eax
  404a91:	83 26 00             	andl   $0x0,(%esi)
  404a94:	83 20 00             	andl   $0x0,(%eax)
  404a97:	33 c0                	xor    %eax,%eax
  404a99:	e9 10 01 00 00       	jmp    0x404bae
  404a9e:	8b 55 10             	mov    0x10(%ebp),%edx
  404aa1:	39 02                	cmp    %eax,(%edx)
  404aa3:	74 0b                	je     0x404ab0
  404aa5:	8b 45 0c             	mov    0xc(%ebp),%eax
  404aa8:	39 18                	cmp    %ebx,(%eax)
  404aaa:	0f 84 80 00 00 00    	je     0x404b30
  404ab0:	8b d3                	mov    %ebx,%edx
  404ab2:	8b ce                	mov    %esi,%ecx
  404ab4:	e8 78 e5 ff ff       	call   0x403031
  404ab9:	33 c9                	xor    %ecx,%ecx
  404abb:	3b c0                	cmp    %eax,%eax
  404abd:	89 45 ec             	mov    %eax,-0x14(%ebp)
  404ac0:	75 04                	jne    0x404ac6
  404ac2:	3b ca                	cmp    %edx,%ecx
  404ac4:	74 07                	je     0x404acd
  404ac6:	6a 02                	push   $0x2
  404ac8:	e9 9e 00 00 00       	jmp    0x404b6b
  404acd:	8b 45 0c             	mov    0xc(%ebp),%eax
  404ad0:	8b 4d 20             	mov    0x20(%ebp),%ecx
  404ad3:	89 18                	mov    %ebx,(%eax)
  404ad5:	8b 45 10             	mov    0x10(%ebp),%eax
  404ad8:	8b 10                	mov    (%eax),%edx
  404ada:	ff 51 04             	call   *0x4(%ecx)
  404add:	8b 45 10             	mov    0x10(%ebp),%eax
  404ae0:	8b 55 ec             	mov    -0x14(%ebp),%edx
  404ae3:	83 20 00             	andl   $0x0,(%eax)
  404ae6:	8b 45 14             	mov    0x14(%ebp),%eax
  404ae9:	85 d2                	test   %edx,%edx
  404aeb:	89 10                	mov    %edx,(%eax)
  404aed:	74 1a                	je     0x404b09
  404aef:	8b 4d 20             	mov    0x20(%ebp),%ecx
  404af2:	ff 11                	call   *(%ecx)
  404af4:	8b 4d 10             	mov    0x10(%ebp),%ecx
  404af7:	85 c0                	test   %eax,%eax
  404af9:	89 01                	mov    %eax,(%ecx)
  404afb:	75 0c                	jne    0x404b09
  404afd:	c7 45 08 02 00 00 00 	movl   $0x2,0x8(%ebp)
  404b04:	e9 a2 00 00 00       	jmp    0x404bab
  404b09:	ff 75 24             	push   0x24(%ebp)
  404b0c:	8b 45 10             	mov    0x10(%ebp),%eax
  404b0f:	8b d3                	mov    %ebx,%edx
  404b11:	8b ce                	mov    %esi,%ecx
  404b13:	ff 75 ec             	push   -0x14(%ebp)
  404b16:	ff 30                	push   (%eax)
  404b18:	ff 76 44             	push   0x44(%esi)
  404b1b:	ff 76 40             	push   0x40(%esi)
  404b1e:	ff 75 fc             	push   -0x4(%ebp)
  404b21:	e8 10 03 00 00       	call   0x404e36
  404b26:	85 c0                	test   %eax,%eax
  404b28:	89 45 08             	mov    %eax,0x8(%ebp)
  404b2b:	75 7e                	jne    0x404bab
  404b2d:	8b 4d 18             	mov    0x18(%ebp),%ecx
  404b30:	8b 46 4c             	mov    0x4c(%esi),%eax
  404b33:	8b 14 f8             	mov    (%eax,%edi,8),%edx
  404b36:	89 55 f8             	mov    %edx,-0x8(%ebp)
  404b39:	8b 54 f8 04          	mov    0x4(%eax,%edi,8),%edx
  404b3d:	89 55 fc             	mov    %edx,-0x4(%ebp)
  404b40:	8b 56 74             	mov    0x74(%esi),%edx
  404b43:	8b 14 9a             	mov    (%edx,%ebx,4),%edx
  404b46:	8b 5d f8             	mov    -0x8(%ebp),%ebx
  404b49:	2b 1c d0             	sub    (%eax,%edx,8),%ebx
  404b4c:	89 19                	mov    %ebx,(%ecx)
  404b4e:	8b 46 4c             	mov    0x4c(%esi),%eax
  404b51:	8b 5d 14             	mov    0x14(%ebp),%ebx
  404b54:	8b 54 f8 08          	mov    0x8(%eax,%edi,8),%edx
  404b58:	8b 45 1c             	mov    0x1c(%ebp),%eax
  404b5b:	2b 55 f8             	sub    -0x8(%ebp),%edx
  404b5e:	89 10                	mov    %edx,(%eax)
  404b60:	8b 01                	mov    (%ecx),%eax
  404b62:	8d 0c 10             	lea    (%eax,%edx,1),%ecx
  404b65:	3b 0b                	cmp    (%ebx),%ecx
  404b67:	76 05                	jbe    0x404b6e
  404b69:	6a 0b                	push   $0xb
  404b6b:	58                   	pop    %eax
  404b6c:	eb 40                	jmp    0x404bae
  404b6e:	83 7e 54 00          	cmpl   $0x0,0x54(%esi)
  404b72:	74 37                	je     0x404bab
  404b74:	8b cf                	mov    %edi,%ecx
  404b76:	bb 80 00 00 00       	mov    $0x80,%ebx
  404b7b:	83 e1 07             	and    $0x7,%ecx
  404b7e:	d3 fb                	sar    %cl,%ebx
  404b80:	8b 4e 54             	mov    0x54(%esi),%ecx
  404b83:	c1 ef 03             	shr    $0x3,%edi
  404b86:	8a 0c 0f             	mov    (%edi,%ecx,1),%cl
  404b89:	84 d9                	test   %bl,%cl
  404b8b:	74 1e                	je     0x404bab
  404b8d:	8b 4d 10             	mov    0x10(%ebp),%ecx
  404b90:	8b 09                	mov    (%ecx),%ecx
  404b92:	03 c8                	add    %eax,%ecx
  404b94:	e8 d0 25 00 00       	call   0x407169
  404b99:	8b 4e 58             	mov    0x58(%esi),%ecx
  404b9c:	8b 55 f4             	mov    -0xc(%ebp),%edx
  404b9f:	3b 04 11             	cmp    (%ecx,%edx,1),%eax
  404ba2:	74 07                	je     0x404bab
  404ba4:	c7 45 08 03 00 00 00 	movl   $0x3,0x8(%ebp)
  404bab:	8b 45 08             	mov    0x8(%ebp),%eax
  404bae:	5f                   	pop    %edi
  404baf:	5e                   	pop    %esi
  404bb0:	5b                   	pop    %ebx
  404bb1:	c9                   	leave  
  404bb2:	c2 20 00             	ret    $0x20
  404bb5:	8b 41 7c             	mov    0x7c(%ecx),%eax
  404bb8:	56                   	push   %esi
  404bb9:	57                   	push   %edi
  404bba:	8b 7c 24 0c          	mov    0xc(%esp),%edi
  404bbe:	8b 34 90             	mov    (%eax,%edx,4),%esi
  404bc1:	8b 44 90 04          	mov    0x4(%eax,%edx,4),%eax
  404bc5:	2b c6                	sub    %esi,%eax
  404bc7:	85 ff                	test   %edi,%edi
  404bc9:	74 1f                	je     0x404bea
  404bcb:	8b 89 80 00 00 00    	mov    0x80(%ecx),%ecx
  404bd1:	85 c0                	test   %eax,%eax
  404bd3:	8d 14 71             	lea    (%ecx,%esi,2),%edx
  404bd6:	76 12                	jbe    0x404bea
  404bd8:	8b cf                	mov    %edi,%ecx
  404bda:	2b d7                	sub    %edi,%edx
  404bdc:	8b f0                	mov    %eax,%esi
  404bde:	66 8b 3c 0a          	mov    (%edx,%ecx,1),%di
  404be2:	66 89 39             	mov    %di,(%ecx)
  404be5:	41                   	inc    %ecx
  404be6:	41                   	inc    %ecx
  404be7:	4e                   	dec    %esi
  404be8:	75 f4                	jne    0x404bde
  404bea:	5f                   	pop    %edi
  404beb:	5e                   	pop    %esi
  404bec:	c2 04 00             	ret    $0x4
  404bef:	83 21 00             	andl   $0x0,(%ecx)
  404bf2:	83 61 04 00          	andl   $0x0,0x4(%ecx)
  404bf6:	c3                   	ret    
  404bf7:	56                   	push   %esi
  404bf8:	8b f1                	mov    %ecx,%esi
  404bfa:	57                   	push   %edi
  404bfb:	8b fa                	mov    %edx,%edi
  404bfd:	83 66 04 00          	andl   $0x0,0x4(%esi)
  404c01:	85 ff                	test   %edi,%edi
  404c03:	75 04                	jne    0x404c09
  404c05:	21 16                	and    %edx,(%esi)
  404c07:	eb 11                	jmp    0x404c1a
  404c09:	8b 4c 24 0c          	mov    0xc(%esp),%ecx
  404c0d:	8b d7                	mov    %edi,%edx
  404c0f:	ff 11                	call   *(%ecx)
  404c11:	85 c0                	test   %eax,%eax
  404c13:	89 06                	mov    %eax,(%esi)
  404c15:	74 08                	je     0x404c1f
  404c17:	89 7e 04             	mov    %edi,0x4(%esi)
  404c1a:	6a 01                	push   $0x1
  404c1c:	58                   	pop    %eax
  404c1d:	eb 02                	jmp    0x404c21
  404c1f:	33 c0                	xor    %eax,%eax
  404c21:	5f                   	pop    %edi
  404c22:	5e                   	pop    %esi
  404c23:	c2 04 00             	ret    $0x4
  404c26:	56                   	push   %esi
  404c27:	8b f1                	mov    %ecx,%esi
  404c29:	8b c2                	mov    %edx,%eax
  404c2b:	8b 16                	mov    (%esi),%edx
  404c2d:	8b c8                	mov    %eax,%ecx
  404c2f:	ff 50 04             	call   *0x4(%eax)
  404c32:	83 26 00             	andl   $0x0,(%esi)
  404c35:	83 66 04 00          	andl   $0x0,0x4(%esi)
  404c39:	5e                   	pop    %esi
  404c3a:	c3                   	ret    
  404c3b:	6a 00                	push   $0x0
  404c3d:	e8 01 00 00 00       	call   0x404c43
  404c42:	c3                   	ret    
  404c43:	8b 44 24 04          	mov    0x4(%esp),%eax
  404c47:	56                   	push   %esi
  404c48:	8b f1                	mov    %ecx,%esi
  404c4a:	6a 00                	push   $0x0
  404c4c:	8b c8                	mov    %eax,%ecx
  404c4e:	68 80 00 00 00       	push   $0x80
  404c53:	f7 d9                	neg    %ecx
  404c55:	1b c9                	sbb    %ecx,%ecx
  404c57:	83 c1 03             	add    $0x3,%ecx
  404c5a:	f7 d8                	neg    %eax
  404c5c:	1b c0                	sbb    %eax,%eax
  404c5e:	51                   	push   %ecx
  404c5f:	25 00 00 00 c0       	and    $0xc0000000,%eax
  404c64:	6a 00                	push   $0x0
  404c66:	05 00 00 00 80       	add    $0x80000000,%eax
  404c6b:	6a 01                	push   $0x1
  404c6d:	50                   	push   %eax
  404c6e:	52                   	push   %edx
  404c6f:	ff 15 2c 80 40 00    	call   *0x40802c
  404c75:	89 06                	mov    %eax,(%esi)
  404c77:	83 f8 ff             	cmp    $0xffffffff,%eax
  404c7a:	5e                   	pop    %esi
  404c7b:	74 04                	je     0x404c81
  404c7d:	33 c0                	xor    %eax,%eax
  404c7f:	eb 06                	jmp    0x404c87
  404c81:	ff 15 74 80 40 00    	call   *0x408074
  404c87:	c2 04 00             	ret    $0x4
  404c8a:	6a 01                	push   $0x1
  404c8c:	e8 b2 ff ff ff       	call   0x404c43
  404c91:	c3                   	ret    
  404c92:	56                   	push   %esi
  404c93:	8b f1                	mov    %ecx,%esi
  404c95:	8b 06                	mov    (%esi),%eax
  404c97:	83 f8 ff             	cmp    $0xffffffff,%eax
  404c9a:	74 16                	je     0x404cb2
  404c9c:	50                   	push   %eax
  404c9d:	ff 15 28 80 40 00    	call   *0x408028
  404ca3:	85 c0                	test   %eax,%eax
  404ca5:	75 08                	jne    0x404caf
  404ca7:	ff 15 74 80 40 00    	call   *0x408074
  404cad:	5e                   	pop    %esi
  404cae:	c3                   	ret    
  404caf:	83 0e ff             	orl    $0xffffffff,(%esi)
  404cb2:	33 c0                	xor    %eax,%eax
  404cb4:	5e                   	pop    %esi
  404cb5:	c3                   	ret    
  404cb6:	55                   	push   %ebp
  404cb7:	8b ec                	mov    %esp,%ebp
  404cb9:	51                   	push   %ecx
  404cba:	53                   	push   %ebx
  404cbb:	56                   	push   %esi
  404cbc:	8b 75 08             	mov    0x8(%ebp),%esi
  404cbf:	57                   	push   %edi
  404cc0:	89 55 fc             	mov    %edx,-0x4(%ebp)
  404cc3:	8b d9                	mov    %ecx,%ebx
  404cc5:	8b 3e                	mov    (%esi),%edi
  404cc7:	83 26 00             	andl   $0x0,(%esi)
  404cca:	85 ff                	test   %edi,%edi
  404ccc:	74 41                	je     0x404d0f
  404cce:	b8 00 00 40 00       	mov    $0x400000,%eax
  404cd3:	3b f8                	cmp    %eax,%edi
  404cd5:	77 02                	ja     0x404cd9
  404cd7:	8b c7                	mov    %edi,%eax
  404cd9:	8d 4d 08             	lea    0x8(%ebp),%ecx
  404cdc:	6a 00                	push   $0x0
  404cde:	83 65 08 00          	andl   $0x0,0x8(%ebp)
  404ce2:	51                   	push   %ecx
  404ce3:	50                   	push   %eax
  404ce4:	ff 75 fc             	push   -0x4(%ebp)
  404ce7:	ff 33                	push   (%ebx)
  404ce9:	ff 15 24 80 40 00    	call   *0x408024
  404cef:	8b 4d 08             	mov    0x8(%ebp),%ecx
  404cf2:	01 4d fc             	add    %ecx,-0x4(%ebp)
  404cf5:	01 0e                	add    %ecx,(%esi)
  404cf7:	2b f9                	sub    %ecx,%edi
  404cf9:	85 c0                	test   %eax,%eax
  404cfb:	74 0a                	je     0x404d07
  404cfd:	85 c9                	test   %ecx,%ecx
  404cff:	74 0e                	je     0x404d0f
  404d01:	85 ff                	test   %edi,%edi
  404d03:	76 0a                	jbe    0x404d0f
  404d05:	eb c7                	jmp    0x404cce
  404d07:	ff 15 74 80 40 00    	call   *0x408074
  404d0d:	eb 02                	jmp    0x404d11
  404d0f:	33 c0                	xor    %eax,%eax
  404d11:	5f                   	pop    %edi
  404d12:	5e                   	pop    %esi
  404d13:	5b                   	pop    %ebx
  404d14:	c9                   	leave  
  404d15:	c2 04 00             	ret    $0x4
  404d18:	55                   	push   %ebp
  404d19:	8b ec                	mov    %esp,%ebp
  404d1b:	51                   	push   %ecx
  404d1c:	53                   	push   %ebx
  404d1d:	56                   	push   %esi
  404d1e:	8b 75 08             	mov    0x8(%ebp),%esi
  404d21:	57                   	push   %edi
  404d22:	89 55 fc             	mov    %edx,-0x4(%ebp)
  404d25:	8b d9                	mov    %ecx,%ebx
  404d27:	8b 3e                	mov    (%esi),%edi
  404d29:	83 26 00             	andl   $0x0,(%esi)
  404d2c:	85 ff                	test   %edi,%edi
  404d2e:	74 41                	je     0x404d71
  404d30:	b8 00 00 40 00       	mov    $0x400000,%eax
  404d35:	3b f8                	cmp    %eax,%edi
  404d37:	77 02                	ja     0x404d3b
  404d39:	8b c7                	mov    %edi,%eax
  404d3b:	8d 4d 08             	lea    0x8(%ebp),%ecx
  404d3e:	6a 00                	push   $0x0
  404d40:	83 65 08 00          	andl   $0x0,0x8(%ebp)
  404d44:	51                   	push   %ecx
  404d45:	50                   	push   %eax
  404d46:	ff 75 fc             	push   -0x4(%ebp)
  404d49:	ff 33                	push   (%ebx)
  404d4b:	ff 15 34 80 40 00    	call   *0x408034
  404d51:	8b 4d 08             	mov    0x8(%ebp),%ecx
  404d54:	01 4d fc             	add    %ecx,-0x4(%ebp)
  404d57:	01 0e                	add    %ecx,(%esi)
  404d59:	2b f9                	sub    %ecx,%edi
  404d5b:	85 c0                	test   %eax,%eax
  404d5d:	74 0a                	je     0x404d69
  404d5f:	85 c9                	test   %ecx,%ecx
  404d61:	74 0e                	je     0x404d71
  404d63:	85 ff                	test   %edi,%edi
  404d65:	76 0a                	jbe    0x404d71
  404d67:	eb c7                	jmp    0x404d30
  404d69:	ff 15 74 80 40 00    	call   *0x408074
  404d6f:	eb 02                	jmp    0x404d73
  404d71:	33 c0                	xor    %eax,%eax
  404d73:	5f                   	pop    %edi
  404d74:	5e                   	pop    %esi
  404d75:	5b                   	pop    %ebx
  404d76:	c9                   	leave  
  404d77:	c2 04 00             	ret    $0x4
  404d7a:	55                   	push   %ebp
  404d7b:	8b ec                	mov    %esp,%ebp
  404d7d:	51                   	push   %ecx
  404d7e:	53                   	push   %ebx
  404d7f:	56                   	push   %esi
  404d80:	8b f2                	mov    %edx,%esi
  404d82:	57                   	push   %edi
  404d83:	8b d9                	mov    %ecx,%ebx
  404d85:	6a 20                	push   $0x20
  404d87:	8b 3e                	mov    (%esi),%edi
  404d89:	8b 56 04             	mov    0x4(%esi),%edx
  404d8c:	59                   	pop    %ecx
  404d8d:	8b c7                	mov    %edi,%eax
  404d8f:	e8 7c 24 00 00       	call   0x407210
  404d94:	89 45 fc             	mov    %eax,-0x4(%ebp)
  404d97:	8b 45 08             	mov    0x8(%ebp),%eax
  404d9a:	83 e8 00             	sub    $0x0,%eax
  404d9d:	74 14                	je     0x404db3
  404d9f:	48                   	dec    %eax
  404da0:	74 0d                	je     0x404daf
  404da2:	48                   	dec    %eax
  404da3:	74 05                	je     0x404daa
  404da5:	6a 57                	push   $0x57
  404da7:	58                   	pop    %eax
  404da8:	eb 3d                	jmp    0x404de7
  404daa:	6a 02                	push   $0x2
  404dac:	58                   	pop    %eax
  404dad:	eb 06                	jmp    0x404db5
  404daf:	6a 01                	push   $0x1
  404db1:	eb f9                	jmp    0x404dac
  404db3:	33 c0                	xor    %eax,%eax
  404db5:	50                   	push   %eax
  404db6:	8d 45 fc             	lea    -0x4(%ebp),%eax
  404db9:	50                   	push   %eax
  404dba:	57                   	push   %edi
  404dbb:	ff 33                	push   (%ebx)
  404dbd:	ff 15 50 80 40 00    	call   *0x408050
  404dc3:	8b f8                	mov    %eax,%edi
  404dc5:	83 ff ff             	cmp    $0xffffffff,%edi
  404dc8:	75 0a                	jne    0x404dd4
  404dca:	ff 15 74 80 40 00    	call   *0x408074
  404dd0:	85 c0                	test   %eax,%eax
  404dd2:	75 13                	jne    0x404de7
  404dd4:	8b 45 fc             	mov    -0x4(%ebp),%eax
  404dd7:	33 c9                	xor    %ecx,%ecx
  404dd9:	99                   	cltd   
  404dda:	33 d2                	xor    %edx,%edx
  404ddc:	0b cf                	or     %edi,%ecx
  404dde:	0b c2                	or     %edx,%eax
  404de0:	89 0e                	mov    %ecx,(%esi)
  404de2:	89 46 04             	mov    %eax,0x4(%esi)
  404de5:	33 c0                	xor    %eax,%eax
  404de7:	5f                   	pop    %edi
  404de8:	5e                   	pop    %esi
  404de9:	5b                   	pop    %ebx
  404dea:	c9                   	leave  
  404deb:	c2 04 00             	ret    $0x4
  404dee:	c7 01 fc 4d 40 00    	movl   $0x404dfc,(%ecx)
  404df4:	c7 41 04 19 4e 40 00 	movl   $0x404e19,0x4(%ecx)
  404dfb:	c3                   	ret    
  404dfc:	56                   	push   %esi
  404dfd:	8b f1                	mov    %ecx,%esi
  404dff:	ff 74 24 08          	push   0x8(%esp)
  404e03:	8d 4e 08             	lea    0x8(%esi),%ecx
  404e06:	e8 ab fe ff ff       	call   0x404cb6
  404e0b:	89 46 0c             	mov    %eax,0xc(%esi)
  404e0e:	f7 d8                	neg    %eax
  404e10:	1b c0                	sbb    %eax,%eax
  404e12:	5e                   	pop    %esi
  404e13:	83 e0 08             	and    $0x8,%eax
  404e16:	c2 04 00             	ret    $0x4
  404e19:	56                   	push   %esi
  404e1a:	8b f1                	mov    %ecx,%esi
  404e1c:	ff 74 24 08          	push   0x8(%esp)
  404e20:	8d 4e 08             	lea    0x8(%esi),%ecx
  404e23:	e8 52 ff ff ff       	call   0x404d7a
  404e28:	89 46 0c             	mov    %eax,0xc(%esi)
  404e2b:	f7 d8                	neg    %eax
  404e2d:	1b c0                	sbb    %eax,%eax
  404e2f:	5e                   	pop    %esi
  404e30:	83 e0 08             	and    $0x8,%eax
  404e33:	c2 04 00             	ret    $0x4
  404e36:	55                   	push   %ebp
  404e37:	8b ec                	mov    %esp,%ebp
  404e39:	81 ec 80 00 00 00    	sub    $0x80,%esp
  404e3f:	53                   	push   %ebx
  404e40:	56                   	push   %esi
  404e41:	57                   	push   %edi
  404e42:	8b f1                	mov    %ecx,%esi
  404e44:	8b fa                	mov    %edx,%edi
  404e46:	89 55 fc             	mov    %edx,-0x4(%ebp)
  404e49:	8b 46 14             	mov    0x14(%esi),%eax
  404e4c:	8b 5e 28             	mov    0x28(%esi),%ebx
  404e4f:	c1 e7 02             	shl    $0x2,%edi
  404e52:	03 1c 38             	add    (%eax,%edi,1),%ebx
  404e55:	8d 0c 38             	lea    (%eax,%edi,1),%ecx
  404e58:	89 5d f4             	mov    %ebx,-0xc(%ebp)
  404e5b:	8b 44 90 04          	mov    0x4(%eax,%edx,4),%eax
  404e5f:	2b 01                	sub    (%ecx),%eax
  404e61:	8d 55 f4             	lea    -0xc(%ebp),%edx
  404e64:	8d 4d 80             	lea    -0x80(%ebp),%ecx
  404e67:	89 45 f8             	mov    %eax,-0x8(%ebp)
  404e6a:	e8 4d dd ff ff       	call   0x402bbc
  404e6f:	85 c0                	test   %eax,%eax
  404e71:	0f 85 e0 00 00 00    	jne    0x404f57
  404e77:	39 45 f8             	cmp    %eax,-0x8(%ebp)
  404e7a:	0f 85 d4 00 00 00    	jne    0x404f54
  404e80:	8b 46 20             	mov    0x20(%esi),%eax
  404e83:	8b 55 fc             	mov    -0x4(%ebp),%edx
  404e86:	0f b6 04 10          	movzbl (%eax,%edx,1),%eax
  404e8a:	39 45 8c             	cmp    %eax,-0x74(%ebp)
  404e8d:	0f 85 c1 00 00 00    	jne    0x404f54
  404e93:	8b ce                	mov    %esi,%ecx
  404e95:	e8 97 e1 ff ff       	call   0x403031
  404e9a:	33 c9                	xor    %ecx,%ecx
  404e9c:	39 45 18             	cmp    %eax,0x18(%ebp)
  404e9f:	0f 85 af 00 00 00    	jne    0x404f54
  404ea5:	3b ca                	cmp    %edx,%ecx
  404ea7:	0f 85 a7 00 00 00    	jne    0x404f54
  404ead:	33 c0                	xor    %eax,%eax
  404eaf:	8b 4e 08             	mov    0x8(%esi),%ecx
  404eb2:	89 45 e8             	mov    %eax,-0x18(%ebp)
  404eb5:	89 45 ec             	mov    %eax,-0x14(%ebp)
  404eb8:	89 45 f0             	mov    %eax,-0x10(%ebp)
  404ebb:	8d 45 e8             	lea    -0x18(%ebp),%eax
  404ebe:	50                   	push   %eax
  404ebf:	8b 46 18             	mov    0x18(%esi),%eax
  404ec2:	ff 75 1c             	push   0x1c(%ebp)
  404ec5:	8b d3                	mov    %ebx,%edx
  404ec7:	8b 04 38             	mov    (%eax,%edi,1),%eax
  404eca:	ff 75 18             	push   0x18(%ebp)
  404ecd:	8d 04 c1             	lea    (%ecx,%eax,8),%eax
  404ed0:	8b 4e 24             	mov    0x24(%esi),%ecx
  404ed3:	ff 75 14             	push   0x14(%ebp)
  404ed6:	ff 75 10             	push   0x10(%ebp)
  404ed9:	ff 75 0c             	push   0xc(%ebp)
  404edc:	ff 75 08             	push   0x8(%ebp)
  404edf:	50                   	push   %eax
  404ee0:	8b 46 1c             	mov    0x1c(%esi),%eax
  404ee3:	8b 04 38             	mov    (%eax,%edi,1),%eax
  404ee6:	8d 04 c1             	lea    (%ecx,%eax,8),%eax
  404ee9:	8d 4d 80             	lea    -0x80(%ebp),%ecx
  404eec:	50                   	push   %eax
  404eed:	e8 6c 00 00 00       	call   0x404f5e
  404ef2:	89 45 08             	mov    %eax,0x8(%ebp)
  404ef5:	8d 5d e8             	lea    -0x18(%ebp),%ebx
  404ef8:	c7 45 10 03 00 00 00 	movl   $0x3,0x10(%ebp)
  404eff:	8b 4d 1c             	mov    0x1c(%ebp),%ecx
  404f02:	8b 13                	mov    (%ebx),%edx
  404f04:	ff 51 04             	call   *0x4(%ecx)
  404f07:	83 c3 04             	add    $0x4,%ebx
  404f0a:	ff 4d 10             	decl   0x10(%ebp)
  404f0d:	75 f0                	jne    0x404eff
  404f0f:	83 7d 08 00          	cmpl   $0x0,0x8(%ebp)
  404f13:	75 3a                	jne    0x404f4f
  404f15:	8b 56 0c             	mov    0xc(%esi),%edx
  404f18:	85 d2                	test   %edx,%edx
  404f1a:	74 33                	je     0x404f4f
  404f1c:	8b 45 fc             	mov    -0x4(%ebp),%eax
  404f1f:	bb 80 00 00 00       	mov    $0x80,%ebx
  404f24:	8b c8                	mov    %eax,%ecx
  404f26:	83 e1 07             	and    $0x7,%ecx
  404f29:	d3 fb                	sar    %cl,%ebx
  404f2b:	c1 e8 03             	shr    $0x3,%eax
  404f2e:	8a 04 10             	mov    (%eax,%edx,1),%al
  404f31:	84 d8                	test   %bl,%al
  404f33:	74 1a                	je     0x404f4f
  404f35:	8b 55 18             	mov    0x18(%ebp),%edx
  404f38:	8b 4d 14             	mov    0x14(%ebp),%ecx
  404f3b:	e8 29 22 00 00       	call   0x407169
  404f40:	8b 4e 10             	mov    0x10(%esi),%ecx
  404f43:	3b 04 39             	cmp    (%ecx,%edi,1),%eax
  404f46:	74 07                	je     0x404f4f
  404f48:	c7 45 08 03 00 00 00 	movl   $0x3,0x8(%ebp)
  404f4f:	8b 45 08             	mov    0x8(%ebp),%eax
  404f52:	eb 03                	jmp    0x404f57
  404f54:	6a 0b                	push   $0xb
  404f56:	58                   	pop    %eax
  404f57:	5f                   	pop    %edi
  404f58:	5e                   	pop    %esi
  404f59:	5b                   	pop    %ebx
  404f5a:	c9                   	leave  
  404f5b:	c2 18 00             	ret    $0x18
  404f5e:	55                   	push   %ebp
  404f5f:	8b ec                	mov    %esp,%ebp
  404f61:	81 ec 84 02 00 00    	sub    $0x284,%esp
  404f67:	53                   	push   %ebx
  404f68:	56                   	push   %esi
  404f69:	57                   	push   %edi
  404f6a:	8b f1                	mov    %ecx,%esi
  404f6c:	33 ff                	xor    %edi,%edi
  404f6e:	89 55 d8             	mov    %edx,-0x28(%ebp)
  404f71:	89 75 f0             	mov    %esi,-0x10(%ebp)
  404f74:	89 7d e0             	mov    %edi,-0x20(%ebp)
  404f77:	89 7d e4             	mov    %edi,-0x1c(%ebp)
  404f7a:	89 7d f4             	mov    %edi,-0xc(%ebp)
  404f7d:	89 7d ec             	mov    %edi,-0x14(%ebp)
  404f80:	e8 89 04 00 00       	call   0x40540e
  404f85:	3b c7                	cmp    %edi,%eax
  404f87:	0f 85 e3 02 00 00    	jne    0x405270
  404f8d:	39 3e                	cmp    %edi,(%esi)
  404f8f:	89 7d fc             	mov    %edi,-0x4(%ebp)
  404f92:	0f 86 d6 02 00 00    	jbe    0x40526e
  404f98:	8b 5d 0c             	mov    0xc(%ebp),%ebx
  404f9b:	eb 06                	jmp    0x404fa3
  404f9d:	8b 7d fc             	mov    -0x4(%ebp),%edi
  404fa0:	8b 75 f0             	mov    -0x10(%ebp),%esi
  404fa3:	8d 04 7f             	lea    (%edi,%edi,2),%eax
  404fa6:	8b 4c 86 3c          	mov    0x3c(%esi,%eax,4),%ecx
  404faa:	8d 74 86 38          	lea    0x38(%esi,%eax,4),%esi
  404fae:	89 75 dc             	mov    %esi,-0x24(%ebp)
  404fb1:	e8 45 04 00 00       	call   0x4053fb
  404fb6:	85 c0                	test   %eax,%eax
  404fb8:	0f 84 3a 01 00 00    	je     0x4050f8
  404fbe:	8b 45 1c             	mov    0x1c(%ebp),%eax
  404fc1:	33 f6                	xor    %esi,%esi
  404fc3:	89 45 f8             	mov    %eax,-0x8(%ebp)
  404fc6:	8b 45 20             	mov    0x20(%ebp),%eax
  404fc9:	89 45 0c             	mov    %eax,0xc(%ebp)
  404fcc:	8b 45 f0             	mov    -0x10(%ebp),%eax
  404fcf:	83 38 04             	cmpl   $0x4,(%eax)
  404fd2:	0f 85 94 00 00 00    	jne    0x40506c
  404fd8:	8b 55 08             	mov    0x8(%ebp),%edx
  404fdb:	8b 4d fc             	mov    -0x4(%ebp),%ecx
  404fde:	21 75 cc             	and    %esi,-0x34(%ebp)
  404fe1:	6a 02                	push   $0x2
  404fe3:	8b 3c fa             	mov    (%edx,%edi,8),%edi
  404fe6:	8b 54 ca 04          	mov    0x4(%edx,%ecx,8),%edx
  404fea:	58                   	pop    %eax
  404feb:	c7 45 c4 03 00 00 00 	movl   $0x3,-0x3c(%ebp)
  404ff2:	89 45 c8             	mov    %eax,-0x38(%ebp)
  404ff5:	8b 74 8d c4          	mov    -0x3c(%ebp,%ecx,4),%esi
  404ff9:	3b c8                	cmp    %eax,%ecx
  404ffb:	73 40                	jae    0x40503d
  404ffd:	33 c9                	xor    %ecx,%ecx
  404fff:	3b ff                	cmp    %edi,%edi
  405001:	89 7d 0c             	mov    %edi,0xc(%ebp)
  405004:	0f 85 66 02 00 00    	jne    0x405270
  40500a:	3b ca                	cmp    %edx,%ecx
  40500c:	0f 85 5e 02 00 00    	jne    0x405270
  405012:	8b 4d 24             	mov    0x24(%ebp),%ecx
  405015:	8b d7                	mov    %edi,%edx
  405017:	ff 11                	call   *(%ecx)
  405019:	85 c0                	test   %eax,%eax
  40501b:	75 08                	jne    0x405025
  40501d:	85 ff                	test   %edi,%edi
  40501f:	0f 85 52 02 00 00    	jne    0x405277
  405025:	8b 4d fc             	mov    -0x4(%ebp),%ecx
  405028:	8b 55 28             	mov    0x28(%ebp),%edx
  40502b:	c1 e1 02             	shl    $0x2,%ecx
  40502e:	f7 d9                	neg    %ecx
  405030:	89 45 f8             	mov    %eax,-0x8(%ebp)
  405033:	89 44 11 04          	mov    %eax,0x4(%ecx,%edx,1)
  405037:	89 7c 0d e4          	mov    %edi,-0x1c(%ebp,%ecx,1)
  40503b:	eb 2f                	jmp    0x40506c
  40503d:	0f 85 40 02 00 00    	jne    0x405283
  405043:	33 c0                	xor    %eax,%eax
  405045:	3b d0                	cmp    %eax,%edx
  405047:	0f 87 2e 02 00 00    	ja     0x40527b
  40504d:	72 09                	jb     0x405058
  40504f:	3b 7d 20             	cmp    0x20(%ebp),%edi
  405052:	0f 87 23 02 00 00    	ja     0x40527b
  405058:	8b 4d 1c             	mov    0x1c(%ebp),%ecx
  40505b:	89 7d 0c             	mov    %edi,0xc(%ebp)
  40505e:	2b cf                	sub    %edi,%ecx
  405060:	89 7d f4             	mov    %edi,-0xc(%ebp)
  405063:	03 4d 20             	add    0x20(%ebp),%ecx
  405066:	89 4d f8             	mov    %ecx,-0x8(%ebp)
  405069:	89 4d ec             	mov    %ecx,-0x14(%ebp)
  40506c:	8b 04 f3             	mov    (%ebx,%esi,8),%eax
  40506f:	8b 7c f3 08          	mov    0x8(%ebx,%esi,8),%edi
  405073:	8b 4c f3 04          	mov    0x4(%ebx,%esi,8),%ecx
  405077:	8b 74 f3 0c          	mov    0xc(%ebx,%esi,8),%esi
  40507b:	2b f8                	sub    %eax,%edi
  40507d:	1b f1                	sbb    %ecx,%esi
  40507f:	03 45 14             	add    0x14(%ebp),%eax
  405082:	13 4d 18             	adc    0x18(%ebp),%ecx
  405085:	51                   	push   %ecx
  405086:	8b 4d 10             	mov    0x10(%ebp),%ecx
  405089:	50                   	push   %eax
  40508a:	e8 57 04 00 00       	call   0x4054e6
  40508f:	85 c0                	test   %eax,%eax
  405091:	0f 85 d9 01 00 00    	jne    0x405270
  405097:	8b 45 dc             	mov    -0x24(%ebp),%eax
  40509a:	8b 48 04             	mov    0x4(%eax),%ecx
  40509d:	85 c9                	test   %ecx,%ecx
  40509f:	75 2d                	jne    0x4050ce
  4050a1:	33 c0                	xor    %eax,%eax
  4050a3:	3b 7d 0c             	cmp    0xc(%ebp),%edi
  4050a6:	0f 85 d3 01 00 00    	jne    0x40527f
  4050ac:	3b f0                	cmp    %eax,%esi
  4050ae:	0f 85 cb 01 00 00    	jne    0x40527f
  4050b4:	8b 55 f8             	mov    -0x8(%ebp),%edx
  4050b7:	8b 4d 10             	mov    0x10(%ebp),%ecx
  4050ba:	56                   	push   %esi
  4050bb:	57                   	push   %edi
  4050bc:	e8 bb 02 00 00       	call   0x40537c
  4050c1:	85 c0                	test   %eax,%eax
  4050c3:	0f 85 a7 01 00 00    	jne    0x405270
  4050c9:	e9 8f 01 00 00       	jmp    0x40525d
  4050ce:	81 f9 01 01 03 00    	cmp    $0x30101,%ecx
  4050d4:	0f 85 a9 01 00 00    	jne    0x405283
  4050da:	ff 75 24             	push   0x24(%ebp)
  4050dd:	8b 08                	mov    (%eax),%ecx
  4050df:	0f b6 50 09          	movzbl 0x9(%eax),%edx
  4050e3:	ff 75 0c             	push   0xc(%ebp)
  4050e6:	03 4d d8             	add    -0x28(%ebp),%ecx
  4050e9:	ff 75 f8             	push   -0x8(%ebp)
  4050ec:	ff 75 10             	push   0x10(%ebp)
  4050ef:	56                   	push   %esi
  4050f0:	57                   	push   %edi
  4050f1:	e8 92 01 00 00       	call   0x405288
  4050f6:	eb c9                	jmp    0x4050c1
  4050f8:	81 7e 04 1b 01 03 03 	cmpl   $0x303011b,0x4(%esi)
  4050ff:	0f 85 7e 01 00 00    	jne    0x405283
  405105:	8b 43 08             	mov    0x8(%ebx),%eax
  405108:	8b 73 10             	mov    0x10(%ebx),%esi
  40510b:	8b 4b 0c             	mov    0xc(%ebx),%ecx
  40510e:	89 45 d0             	mov    %eax,-0x30(%ebp)
  405111:	2b f0                	sub    %eax,%esi
  405113:	8b 43 14             	mov    0x14(%ebx),%eax
  405116:	1b c1                	sbb    %ecx,%eax
  405118:	83 ff 03             	cmp    $0x3,%edi
  40511b:	89 4d d4             	mov    %ecx,-0x2c(%ebp)
  40511e:	89 45 c0             	mov    %eax,-0x40(%ebp)
  405121:	0f 85 5c 01 00 00    	jne    0x405283
  405127:	33 c9                	xor    %ecx,%ecx
  405129:	3b f6                	cmp    %esi,%esi
  40512b:	0f 85 46 01 00 00    	jne    0x405277
  405131:	3b c8                	cmp    %eax,%ecx
  405133:	0f 85 3e 01 00 00    	jne    0x405277
  405139:	8b 4d 24             	mov    0x24(%ebp),%ecx
  40513c:	8b d6                	mov    %esi,%edx
  40513e:	ff 11                	call   *(%ecx)
  405140:	8b 7d 28             	mov    0x28(%ebp),%edi
  405143:	85 c0                	test   %eax,%eax
  405145:	89 47 08             	mov    %eax,0x8(%edi)
  405148:	75 08                	jne    0x405152
  40514a:	85 f6                	test   %esi,%esi
  40514c:	0f 85 25 01 00 00    	jne    0x405277
  405152:	8b 45 d0             	mov    -0x30(%ebp),%eax
  405155:	8b 4d d4             	mov    -0x2c(%ebp),%ecx
  405158:	03 45 14             	add    0x14(%ebp),%eax
  40515b:	13 4d 18             	adc    0x18(%ebp),%ecx
  40515e:	51                   	push   %ecx
  40515f:	8b 4d 10             	mov    0x10(%ebp),%ecx
  405162:	50                   	push   %eax
  405163:	e8 7e 03 00 00       	call   0x4054e6
  405168:	85 c0                	test   %eax,%eax
  40516a:	0f 85 00 01 00 00    	jne    0x405270
  405170:	ff 75 c0             	push   -0x40(%ebp)
  405173:	8b 57 08             	mov    0x8(%edi),%edx
  405176:	8b 4d 10             	mov    0x10(%ebp),%ecx
  405179:	56                   	push   %esi
  40517a:	e8 fd 01 00 00       	call   0x40537c
  40517f:	85 c0                	test   %eax,%eax
  405181:	0f 85 e9 00 00 00    	jne    0x405270
  405187:	f6 45 e0 03          	testb  $0x3,-0x20(%ebp)
  40518b:	0f 85 ee 00 00 00    	jne    0x40527f
  405191:	8b 4d e4             	mov    -0x1c(%ebp),%ecx
  405194:	f6 c1 03             	test   $0x3,%cl
  405197:	0f 85 e2 00 00 00    	jne    0x40527f
  40519d:	8b 45 f4             	mov    -0xc(%ebp),%eax
  4051a0:	03 c1                	add    %ecx,%eax
  4051a2:	03 45 e0             	add    -0x20(%ebp),%eax
  4051a5:	3b 45 20             	cmp    0x20(%ebp),%eax
  4051a8:	0f 85 d1 00 00 00    	jne    0x40527f
  4051ae:	8b 45 ec             	mov    -0x14(%ebp),%eax
  4051b1:	8b 55 f4             	mov    -0xc(%ebp),%edx
  4051b4:	89 85 7c fd ff ff    	mov    %eax,-0x284(%ebp)
  4051ba:	03 c2                	add    %edx,%eax
  4051bc:	8b 55 e0             	mov    -0x20(%ebp),%edx
  4051bf:	89 85 8c fd ff ff    	mov    %eax,-0x274(%ebp)
  4051c5:	8b 07                	mov    (%edi),%eax
  4051c7:	89 85 80 fd ff ff    	mov    %eax,-0x280(%ebp)
  4051cd:	03 c2                	add    %edx,%eax
  4051cf:	89 85 90 fd ff ff    	mov    %eax,-0x270(%ebp)
  4051d5:	8b 47 04             	mov    0x4(%edi),%eax
  4051d8:	89 85 84 fd ff ff    	mov    %eax,-0x27c(%ebp)
  4051de:	03 c1                	add    %ecx,%eax
  4051e0:	89 85 94 fd ff ff    	mov    %eax,-0x26c(%ebp)
  4051e6:	8b 47 08             	mov    0x8(%edi),%eax
  4051e9:	8b 4d 20             	mov    0x20(%ebp),%ecx
  4051ec:	89 85 88 fd ff ff    	mov    %eax,-0x278(%ebp)
  4051f2:	03 c6                	add    %esi,%eax
  4051f4:	89 85 98 fd ff ff    	mov    %eax,-0x268(%ebp)
  4051fa:	8b 45 1c             	mov    0x1c(%ebp),%eax
  4051fd:	89 85 9c fd ff ff    	mov    %eax,-0x264(%ebp)
  405203:	03 c1                	add    %ecx,%eax
  405205:	8d 8d 7c fd ff ff    	lea    -0x284(%ebp),%ecx
  40520b:	89 85 a0 fd ff ff    	mov    %eax,-0x260(%ebp)
  405211:	e8 55 04 00 00       	call   0x40566b
  405216:	8d 8d 7c fd ff ff    	lea    -0x284(%ebp),%ecx
  40521c:	e8 71 04 00 00       	call   0x405692
  405221:	85 c0                	test   %eax,%eax
  405223:	75 4b                	jne    0x405270
  405225:	33 c9                	xor    %ecx,%ecx
  405227:	8d 85 7c fd ff ff    	lea    -0x284(%ebp),%eax
  40522d:	8b 10                	mov    (%eax),%edx
  40522f:	3b 50 10             	cmp    0x10(%eax),%edx
  405232:	75 4b                	jne    0x40527f
  405234:	41                   	inc    %ecx
  405235:	83 c0 04             	add    $0x4,%eax
  405238:	83 f9 04             	cmp    $0x4,%ecx
  40523b:	72 f0                	jb     0x40522d
  40523d:	8b 85 9c fd ff ff    	mov    -0x264(%ebp),%eax
  405243:	3b 85 a0 fd ff ff    	cmp    -0x260(%ebp),%eax
  405249:	75 34                	jne    0x40527f
  40524b:	83 bd a4 fd ff ff 00 	cmpl   $0x0,-0x25c(%ebp)
  405252:	75 2b                	jne    0x40527f
  405254:	83 bd b4 fd ff ff 00 	cmpl   $0x0,-0x24c(%ebp)
  40525b:	75 22                	jne    0x40527f
  40525d:	ff 45 fc             	incl   -0x4(%ebp)
  405260:	8b 45 f0             	mov    -0x10(%ebp),%eax
  405263:	8b 4d fc             	mov    -0x4(%ebp),%ecx
  405266:	3b 08                	cmp    (%eax),%ecx
  405268:	0f 82 2f fd ff ff    	jb     0x404f9d
  40526e:	33 c0                	xor    %eax,%eax
  405270:	5f                   	pop    %edi
  405271:	5e                   	pop    %esi
  405272:	5b                   	pop    %ebx
  405273:	c9                   	leave  
  405274:	c2 24 00             	ret    $0x24
  405277:	6a 02                	push   $0x2
  405279:	eb 0a                	jmp    0x405285
  40527b:	6a 05                	push   $0x5
  40527d:	eb 06                	jmp    0x405285
  40527f:	6a 01                	push   $0x1
  405281:	eb 02                	jmp    0x405285
  405283:	6a 04                	push   $0x4
  405285:	58                   	pop    %eax
  405286:	eb e8                	jmp    0x405270
  405288:	55                   	push   %ebp
  405289:	8b ec                	mov    %esp,%ebp
  40528b:	83 ec 70             	sub    $0x70,%esp
  40528e:	ff 75 1c             	push   0x1c(%ebp)
  405291:	83 65 a0 00          	andl   $0x0,-0x60(%ebp)
  405295:	83 65 98 00          	andl   $0x0,-0x68(%ebp)
  405299:	52                   	push   %edx
  40529a:	8b d1                	mov    %ecx,%edx
  40529c:	8d 4d 90             	lea    -0x70(%ebp),%ecx
  40529f:	e8 23 1e 00 00       	call   0x4070c7
  4052a4:	85 c0                	test   %eax,%eax
  4052a6:	0f 85 cc 00 00 00    	jne    0x405378
  4052ac:	8b 45 14             	mov    0x14(%ebp),%eax
  4052af:	53                   	push   %ebx
  4052b0:	89 45 a0             	mov    %eax,-0x60(%ebp)
  4052b3:	8b 45 18             	mov    0x18(%ebp),%eax
  4052b6:	56                   	push   %esi
  4052b7:	57                   	push   %edi
  4052b8:	8d 4d 90             	lea    -0x70(%ebp),%ecx
  4052bb:	89 45 a4             	mov    %eax,-0x5c(%ebp)
  4052be:	e8 36 08 00 00       	call   0x405af9
  4052c3:	8b 5d 08             	mov    0x8(%ebp),%ebx
  4052c6:	83 65 fc 00          	andl   $0x0,-0x4(%ebp)
  4052ca:	83 7d 0c 00          	cmpl   $0x0,0xc(%ebp)
  4052ce:	b8 00 00 04 00       	mov    $0x40000,%eax
  4052d3:	89 45 14             	mov    %eax,0x14(%ebp)
  4052d6:	77 09                	ja     0x4052e1
  4052d8:	72 04                	jb     0x4052de
  4052da:	3b d8                	cmp    %eax,%ebx
  4052dc:	73 03                	jae    0x4052e1
  4052de:	89 5d 14             	mov    %ebx,0x14(%ebp)
  4052e1:	8b 4d 10             	mov    0x10(%ebp),%ecx
  4052e4:	8d 45 14             	lea    0x14(%ebp),%eax
  4052e7:	50                   	push   %eax
  4052e8:	8d 55 fc             	lea    -0x4(%ebp),%edx
  4052eb:	ff 11                	call   *(%ecx)
  4052ed:	8b f0                	mov    %eax,%esi
  4052ef:	85 f6                	test   %esi,%esi
  4052f1:	75 75                	jne    0x405368
  4052f3:	8b 45 14             	mov    0x14(%ebp),%eax
  4052f6:	8b 55 18             	mov    0x18(%ebp),%edx
  4052f9:	89 45 f8             	mov    %eax,-0x8(%ebp)
  4052fc:	8d 45 f4             	lea    -0xc(%ebp),%eax
  4052ff:	8b 7d a8             	mov    -0x58(%ebp),%edi
  405302:	50                   	push   %eax
  405303:	8d 45 f8             	lea    -0x8(%ebp),%eax
  405306:	6a 01                	push   $0x1
  405308:	50                   	push   %eax
  405309:	8d 4d 90             	lea    -0x70(%ebp),%ecx
  40530c:	ff 75 fc             	push   -0x4(%ebp)
  40530f:	e8 f3 07 00 00       	call   0x405b07
  405314:	8b 55 f8             	mov    -0x8(%ebp),%edx
  405317:	8b f0                	mov    %eax,%esi
  405319:	29 55 14             	sub    %edx,0x14(%ebp)
  40531c:	2b da                	sub    %edx,%ebx
  40531e:	83 5d 0c 00          	sbbl   $0x0,0xc(%ebp)
  405322:	85 f6                	test   %esi,%esi
  405324:	75 42                	jne    0x405368
  405326:	83 7d f4 01          	cmpl   $0x1,-0xc(%ebp)
  40532a:	8b 45 18             	mov    0x18(%ebp),%eax
  40532d:	74 2c                	je     0x40535b
  40532f:	3b 45 a8             	cmp    -0x58(%ebp),%eax
  405332:	75 0d                	jne    0x405341
  405334:	8b c3                	mov    %ebx,%eax
  405336:	0b 45 0c             	or     0xc(%ebp),%eax
  405339:	75 06                	jne    0x405341
  40533b:	83 7d f4 04          	cmpl   $0x4,-0xc(%ebp)
  40533f:	74 27                	je     0x405368
  405341:	85 d2                	test   %edx,%edx
  405343:	75 05                	jne    0x40534a
  405345:	3b 7d a8             	cmp    -0x58(%ebp),%edi
  405348:	74 1b                	je     0x405365
  40534a:	8b 4d 10             	mov    0x10(%ebp),%ecx
  40534d:	ff 51 04             	call   *0x4(%ecx)
  405350:	8b f0                	mov    %eax,%esi
  405352:	85 f6                	test   %esi,%esi
  405354:	75 12                	jne    0x405368
  405356:	e9 6b ff ff ff       	jmp    0x4052c6
  40535b:	3b 45 a8             	cmp    -0x58(%ebp),%eax
  40535e:	75 05                	jne    0x405365
  405360:	0b 5d 0c             	or     0xc(%ebp),%ebx
  405363:	74 03                	je     0x405368
  405365:	6a 01                	push   $0x1
  405367:	5e                   	pop    %esi
  405368:	8b 55 1c             	mov    0x1c(%ebp),%edx
  40536b:	8d 4d 90             	lea    -0x70(%ebp),%ecx
  40536e:	e8 d1 1c 00 00       	call   0x407044
  405373:	8b c6                	mov    %esi,%eax
  405375:	5f                   	pop    %edi
  405376:	5e                   	pop    %esi
  405377:	5b                   	pop    %ebx
  405378:	c9                   	leave  
  405379:	c2 18 00             	ret    $0x18
  40537c:	55                   	push   %ebp
  40537d:	8b ec                	mov    %esp,%ebp
  40537f:	51                   	push   %ecx
  405380:	51                   	push   %ecx
  405381:	53                   	push   %ebx
  405382:	8b 5d 0c             	mov    0xc(%ebp),%ebx
  405385:	56                   	push   %esi
  405386:	57                   	push   %edi
  405387:	8b 7d 08             	mov    0x8(%ebp),%edi
  40538a:	89 55 fc             	mov    %edx,-0x4(%ebp)
  40538d:	85 db                	test   %ebx,%ebx
  40538f:	8b f1                	mov    %ecx,%esi
  405391:	77 04                	ja     0x405397
  405393:	85 ff                	test   %edi,%edi
  405395:	76 5b                	jbe    0x4053f2
  405397:	b8 00 00 04 00       	mov    $0x40000,%eax
  40539c:	85 db                	test   %ebx,%ebx
  40539e:	89 45 0c             	mov    %eax,0xc(%ebp)
  4053a1:	77 09                	ja     0x4053ac
  4053a3:	72 04                	jb     0x4053a9
  4053a5:	3b f8                	cmp    %eax,%edi
  4053a7:	73 03                	jae    0x4053ac
  4053a9:	89 7d 0c             	mov    %edi,0xc(%ebp)
  4053ac:	8d 45 0c             	lea    0xc(%ebp),%eax
  4053af:	8d 55 f8             	lea    -0x8(%ebp),%edx
  4053b2:	50                   	push   %eax
  4053b3:	8b ce                	mov    %esi,%ecx
  4053b5:	ff 16                	call   *(%esi)
  4053b7:	85 c0                	test   %eax,%eax
  4053b9:	75 39                	jne    0x4053f4
  4053bb:	39 45 0c             	cmp    %eax,0xc(%ebp)
  4053be:	74 2d                	je     0x4053ed
  4053c0:	ff 75 0c             	push   0xc(%ebp)
  4053c3:	ff 75 f8             	push   -0x8(%ebp)
  4053c6:	ff 75 fc             	push   -0x4(%ebp)
  4053c9:	e8 82 1e 00 00       	call   0x407250
  4053ce:	8b 55 0c             	mov    0xc(%ebp),%edx
  4053d1:	83 c4 0c             	add    $0xc,%esp
  4053d4:	01 55 fc             	add    %edx,-0x4(%ebp)
  4053d7:	2b fa                	sub    %edx,%edi
  4053d9:	8b ce                	mov    %esi,%ecx
  4053db:	83 db 00             	sbb    $0x0,%ebx
  4053de:	ff 56 04             	call   *0x4(%esi)
  4053e1:	85 c0                	test   %eax,%eax
  4053e3:	75 0f                	jne    0x4053f4
  4053e5:	85 db                	test   %ebx,%ebx
  4053e7:	77 ae                	ja     0x405397
  4053e9:	72 07                	jb     0x4053f2
  4053eb:	eb a6                	jmp    0x405393
  4053ed:	6a 06                	push   $0x6
  4053ef:	58                   	pop    %eax
  4053f0:	eb 02                	jmp    0x4053f4
  4053f2:	33 c0                	xor    %eax,%eax
  4053f4:	5f                   	pop    %edi
  4053f5:	5e                   	pop    %esi
  4053f6:	5b                   	pop    %ebx
  4053f7:	c9                   	leave  
  4053f8:	c2 08 00             	ret    $0x8
  4053fb:	85 c9                	test   %ecx,%ecx
  4053fd:	74 0b                	je     0x40540a
  4053ff:	81 f9 01 01 03 00    	cmp    $0x30101,%ecx
  405405:	74 03                	je     0x40540a
  405407:	33 c0                	xor    %eax,%eax
  405409:	c3                   	ret    
  40540a:	6a 01                	push   $0x1
  40540c:	58                   	pop    %eax
  40540d:	c3                   	ret    
  40540e:	53                   	push   %ebx
  40540f:	56                   	push   %esi
  405410:	8b f1                	mov    %ecx,%esi
  405412:	6a 04                	push   $0x4
  405414:	5b                   	pop    %ebx
  405415:	8b 06                	mov    (%esi),%eax
  405417:	83 f8 01             	cmp    $0x1,%eax
  40541a:	0f 82 a8 00 00 00    	jb     0x4054c8
  405420:	3b c3                	cmp    %ebx,%eax
  405422:	0f 87 a0 00 00 00    	ja     0x4054c8
  405428:	8d 4e 38             	lea    0x38(%esi),%ecx
  40542b:	e8 9d 00 00 00       	call   0x4054cd
  405430:	85 c0                	test   %eax,%eax
  405432:	0f 84 90 00 00 00    	je     0x4054c8
  405438:	8b 06                	mov    (%esi),%eax
  40543a:	83 f8 01             	cmp    $0x1,%eax
  40543d:	75 19                	jne    0x405458
  40543f:	39 46 08             	cmp    %eax,0x8(%esi)
  405442:	0f 85 80 00 00 00    	jne    0x4054c8
  405448:	83 7e 10 00          	cmpl   $0x0,0x10(%esi)
  40544c:	75 7a                	jne    0x4054c8
  40544e:	83 7e 04 00          	cmpl   $0x0,0x4(%esi)
  405452:	75 74                	jne    0x4054c8
  405454:	33 c0                	xor    %eax,%eax
  405456:	eb 72                	jmp    0x4054ca
  405458:	3b c3                	cmp    %ebx,%eax
  40545a:	75 6c                	jne    0x4054c8
  40545c:	8d 4e 44             	lea    0x44(%esi),%ecx
  40545f:	e8 69 00 00 00       	call   0x4054cd
  405464:	85 c0                	test   %eax,%eax
  405466:	74 60                	je     0x4054c8
  405468:	8d 4e 50             	lea    0x50(%esi),%ecx
  40546b:	e8 5d 00 00 00       	call   0x4054cd
  405470:	85 c0                	test   %eax,%eax
  405472:	74 54                	je     0x4054c8
  405474:	81 7e 60 1b 01 03 03 	cmpl   $0x303011b,0x60(%esi)
  40547b:	75 4b                	jne    0x4054c8
  40547d:	38 5e 64             	cmp    %bl,0x64(%esi)
  405480:	75 46                	jne    0x4054c8
  405482:	39 5e 08             	cmp    %ebx,0x8(%esi)
  405485:	75 41                	jne    0x4054c8
  405487:	83 7e 10 02          	cmpl   $0x2,0x10(%esi)
  40548b:	75 3b                	jne    0x4054c8
  40548d:	83 7e 14 06          	cmpl   $0x6,0x14(%esi)
  405491:	75 35                	jne    0x4054c8
  405493:	83 7e 18 01          	cmpl   $0x1,0x18(%esi)
  405497:	75 2f                	jne    0x4054c8
  405499:	83 7e 1c 00          	cmpl   $0x0,0x1c(%esi)
  40549d:	75 29                	jne    0x4054c8
  40549f:	83 7e 04 03          	cmpl   $0x3,0x4(%esi)
  4054a3:	75 23                	jne    0x4054c8
  4054a5:	83 7e 20 05          	cmpl   $0x5,0x20(%esi)
  4054a9:	75 1d                	jne    0x4054c8
  4054ab:	83 7e 24 00          	cmpl   $0x0,0x24(%esi)
  4054af:	75 17                	jne    0x4054c8
  4054b1:	39 5e 28             	cmp    %ebx,0x28(%esi)
  4054b4:	75 12                	jne    0x4054c8
  4054b6:	83 7e 2c 01          	cmpl   $0x1,0x2c(%esi)
  4054ba:	75 0c                	jne    0x4054c8
  4054bc:	83 7e 30 03          	cmpl   $0x3,0x30(%esi)
  4054c0:	75 06                	jne    0x4054c8
  4054c2:	83 7e 34 02          	cmpl   $0x2,0x34(%esi)
  4054c6:	eb 8a                	jmp    0x405452
  4054c8:	8b c3                	mov    %ebx,%eax
  4054ca:	5e                   	pop    %esi
  4054cb:	5b                   	pop    %ebx
  4054cc:	c3                   	ret    
  4054cd:	80 79 08 01          	cmpb   $0x1,0x8(%ecx)
  4054d1:	75 10                	jne    0x4054e3
  4054d3:	8b 49 04             	mov    0x4(%ecx),%ecx
  4054d6:	e8 20 ff ff ff       	call   0x4053fb
  4054db:	85 c0                	test   %eax,%eax
  4054dd:	74 04                	je     0x4054e3
  4054df:	6a 01                	push   $0x1
  4054e1:	58                   	pop    %eax
  4054e2:	c3                   	ret    
  4054e3:	33 c0                	xor    %eax,%eax
  4054e5:	c3                   	ret    
  4054e6:	55                   	push   %ebp
  4054e7:	8b ec                	mov    %esp,%ebp
  4054e9:	51                   	push   %ecx
  4054ea:	51                   	push   %ecx
  4054eb:	8b 45 08             	mov    0x8(%ebp),%eax
  4054ee:	6a 00                	push   $0x0
  4054f0:	89 45 f8             	mov    %eax,-0x8(%ebp)
  4054f3:	8b 45 0c             	mov    0xc(%ebp),%eax
  4054f6:	8d 55 f8             	lea    -0x8(%ebp),%edx
  4054f9:	89 45 fc             	mov    %eax,-0x4(%ebp)
  4054fc:	ff 51 0c             	call   *0xc(%ecx)
  4054ff:	c9                   	leave  
  405500:	c2 08 00             	ret    $0x8
  405503:	55                   	push   %ebp
  405504:	8b ec                	mov    %esp,%ebp
  405506:	53                   	push   %ebx
  405507:	56                   	push   %esi
  405508:	8b 75 08             	mov    0x8(%ebp),%esi
  40550b:	57                   	push   %edi
  40550c:	85 f6                	test   %esi,%esi
  40550e:	8b da                	mov    %edx,%ebx
  405510:	8b f9                	mov    %ecx,%edi
  405512:	74 1f                	je     0x405533
  405514:	8d 45 08             	lea    0x8(%ebp),%eax
  405517:	8b d3                	mov    %ebx,%edx
  405519:	50                   	push   %eax
  40551a:	8b cf                	mov    %edi,%ecx
  40551c:	89 75 08             	mov    %esi,0x8(%ebp)
  40551f:	ff 57 08             	call   *0x8(%edi)
  405522:	85 c0                	test   %eax,%eax
  405524:	75 0f                	jne    0x405535
  405526:	39 45 08             	cmp    %eax,0x8(%ebp)
  405529:	74 11                	je     0x40553c
  40552b:	03 5d 08             	add    0x8(%ebp),%ebx
  40552e:	2b 75 08             	sub    0x8(%ebp),%esi
  405531:	75 e1                	jne    0x405514
  405533:	33 c0                	xor    %eax,%eax
  405535:	5f                   	pop    %edi
  405536:	5e                   	pop    %esi
  405537:	5b                   	pop    %ebx
  405538:	5d                   	pop    %ebp
  405539:	c2 08 00             	ret    $0x8
  40553c:	8b 45 0c             	mov    0xc(%ebp),%eax
  40553f:	eb f4                	jmp    0x405535
  405541:	6a 06                	push   $0x6
  405543:	ff 74 24 08          	push   0x8(%esp)
  405547:	e8 b7 ff ff ff       	call   0x405503
  40554c:	c2 04 00             	ret    $0x4
  40554f:	85 d2                	test   %edx,%edx
  405551:	b8 75 55 40 00       	mov    $0x405575,%eax
  405556:	75 05                	jne    0x40555d
  405558:	b8 c3 55 40 00       	mov    $0x4055c3,%eax
  40555d:	89 01                	mov    %eax,(%ecx)
  40555f:	c7 41 04 0d 56 40 00 	movl   $0x40560d,0x4(%ecx)
  405566:	c7 41 08 13 56 40 00 	movl   $0x405613,0x8(%ecx)
  40556d:	c7 41 0c 56 56 40 00 	movl   $0x405656,0xc(%ecx)
  405574:	c3                   	ret    
  405575:	55                   	push   %ebp
  405576:	8b ec                	mov    %esp,%ebp
  405578:	53                   	push   %ebx
  405579:	56                   	push   %esi
  40557a:	8b f1                	mov    %ecx,%esi
  40557c:	33 c0                	xor    %eax,%eax
  40557e:	57                   	push   %edi
  40557f:	8b 7d 08             	mov    0x8(%ebp),%edi
  405582:	8b 4e 18             	mov    0x18(%esi),%ecx
  405585:	8b da                	mov    %edx,%ebx
  405587:	2b 4e 14             	sub    0x14(%esi),%ecx
  40558a:	75 22                	jne    0x4055ae
  40558c:	39 07                	cmp    %eax,(%edi)
  40558e:	74 1e                	je     0x4055ae
  405590:	8b 4e 10             	mov    0x10(%esi),%ecx
  405593:	8b 56 1c             	mov    0x1c(%esi),%edx
  405596:	89 46 14             	mov    %eax,0x14(%esi)
  405599:	89 46 18             	mov    %eax,0x18(%esi)
  40559c:	8b 46 20             	mov    0x20(%esi),%eax
  40559f:	89 45 08             	mov    %eax,0x8(%ebp)
  4055a2:	8d 45 08             	lea    0x8(%ebp),%eax
  4055a5:	50                   	push   %eax
  4055a6:	ff 11                	call   *(%ecx)
  4055a8:	8b 4d 08             	mov    0x8(%ebp),%ecx
  4055ab:	89 4e 18             	mov    %ecx,0x18(%esi)
  4055ae:	39 0f                	cmp    %ecx,(%edi)
  4055b0:	76 02                	jbe    0x4055b4
  4055b2:	89 0f                	mov    %ecx,(%edi)
  4055b4:	8b 4e 1c             	mov    0x1c(%esi),%ecx
  4055b7:	5f                   	pop    %edi
  4055b8:	03 4e 14             	add    0x14(%esi),%ecx
  4055bb:	5e                   	pop    %esi
  4055bc:	89 0b                	mov    %ecx,(%ebx)
  4055be:	5b                   	pop    %ebx
  4055bf:	5d                   	pop    %ebp
  4055c0:	c2 04 00             	ret    $0x4
  4055c3:	53                   	push   %ebx
  4055c4:	56                   	push   %esi
  4055c5:	8b f1                	mov    %ecx,%esi
  4055c7:	33 c0                	xor    %eax,%eax
  4055c9:	57                   	push   %edi
  4055ca:	8b 7c 24 10          	mov    0x10(%esp),%edi
  4055ce:	8b 4e 18             	mov    0x18(%esi),%ecx
  4055d1:	8b da                	mov    %edx,%ebx
  4055d3:	2b 4e 14             	sub    0x14(%esi),%ecx
  4055d6:	75 21                	jne    0x4055f9
  4055d8:	39 07                	cmp    %eax,(%edi)
  4055da:	74 1d                	je     0x4055f9
  4055dc:	89 46 14             	mov    %eax,0x14(%esi)
  4055df:	89 46 18             	mov    %eax,0x18(%esi)
  4055e2:	8b 46 20             	mov    0x20(%esi),%eax
  4055e5:	39 07                	cmp    %eax,(%edi)
  4055e7:	76 02                	jbe    0x4055eb
  4055e9:	89 07                	mov    %eax,(%edi)
  4055eb:	8b 4e 10             	mov    0x10(%esi),%ecx
  4055ee:	8b 56 1c             	mov    0x1c(%esi),%edx
  4055f1:	57                   	push   %edi
  4055f2:	ff 11                	call   *(%ecx)
  4055f4:	8b 0f                	mov    (%edi),%ecx
  4055f6:	89 4e 18             	mov    %ecx,0x18(%esi)
  4055f9:	39 0f                	cmp    %ecx,(%edi)
  4055fb:	76 02                	jbe    0x4055ff
  4055fd:	89 0f                	mov    %ecx,(%edi)
  4055ff:	8b 4e 1c             	mov    0x1c(%esi),%ecx
  405602:	5f                   	pop    %edi
  405603:	03 4e 14             	add    0x14(%esi),%ecx
  405606:	5e                   	pop    %esi
  405607:	89 0b                	mov    %ecx,(%ebx)
  405609:	5b                   	pop    %ebx
  40560a:	c2 04 00             	ret    $0x4
  40560d:	01 51 14             	add    %edx,0x14(%ecx)
  405610:	33 c0                	xor    %eax,%eax
  405612:	c3                   	ret    
  405613:	56                   	push   %esi
  405614:	8b f1                	mov    %ecx,%esi
  405616:	57                   	push   %edi
  405617:	8b 46 14             	mov    0x14(%esi),%eax
  40561a:	8b 7e 18             	mov    0x18(%esi),%edi
  40561d:	2b f8                	sub    %eax,%edi
  40561f:	75 0b                	jne    0x40562c
  405621:	8b 4e 10             	mov    0x10(%esi),%ecx
  405624:	ff 74 24 0c          	push   0xc(%esp)
  405628:	ff 11                	call   *(%ecx)
  40562a:	eb 25                	jmp    0x405651
  40562c:	53                   	push   %ebx
  40562d:	8b 5c 24 10          	mov    0x10(%esp),%ebx
  405631:	8b 0b                	mov    (%ebx),%ecx
  405633:	3b f9                	cmp    %ecx,%edi
  405635:	76 02                	jbe    0x405639
  405637:	8b f9                	mov    %ecx,%edi
  405639:	8b 4e 1c             	mov    0x1c(%esi),%ecx
  40563c:	57                   	push   %edi
  40563d:	03 c8                	add    %eax,%ecx
  40563f:	51                   	push   %ecx
  405640:	52                   	push   %edx
  405641:	e8 0a 1c 00 00       	call   0x407250
  405646:	01 7e 14             	add    %edi,0x14(%esi)
  405649:	83 c4 0c             	add    $0xc,%esp
  40564c:	89 3b                	mov    %edi,(%ebx)
  40564e:	33 c0                	xor    %eax,%eax
  405650:	5b                   	pop    %ebx
  405651:	5f                   	pop    %edi
  405652:	5e                   	pop    %esi
  405653:	c2 04 00             	ret    $0x4
  405656:	83 61 18 00          	andl   $0x0,0x18(%ecx)
  40565a:	83 61 14 00          	andl   $0x0,0x14(%ecx)
  40565e:	8b 49 10             	mov    0x10(%ecx),%ecx
  405661:	ff 74 24 04          	push   0x4(%esp)
  405665:	ff 51 04             	call   *0x4(%ecx)
  405668:	c2 04 00             	ret    $0x4
  40566b:	33 c0                	xor    %eax,%eax
  40566d:	57                   	push   %edi
  40566e:	c7 41 28 03 00 00 00 	movl   $0x3,0x28(%ecx)
  405675:	89 41 2c             	mov    %eax,0x2c(%ecx)
  405678:	89 41 30             	mov    %eax,0x30(%ecx)
  40567b:	89 41 34             	mov    %eax,0x34(%ecx)
  40567e:	89 41 38             	mov    %eax,0x38(%ecx)
  405681:	8d 79 3c             	lea    0x3c(%ecx),%edi
  405684:	b9 81 00 00 00       	mov    $0x81,%ecx
  405689:	b8 00 04 00 04       	mov    $0x4000400,%eax
  40568e:	f3 ab                	rep stos %eax,%es:(%edi)
  405690:	5f                   	pop    %edi
  405691:	c3                   	ret    
  405692:	55                   	push   %ebp
  405693:	8b ec                	mov    %esp,%ebp
  405695:	51                   	push   %ecx
  405696:	8b 41 34             	mov    0x34(%ecx),%eax
  405699:	8b 51 30             	mov    0x30(%ecx),%edx
  40569c:	53                   	push   %ebx
  40569d:	56                   	push   %esi
  40569e:	83 f8 05             	cmp    $0x5,%eax
  4056a1:	57                   	push   %edi
  4056a2:	77 5d                	ja     0x405701
  4056a4:	8b 71 38             	mov    0x38(%ecx),%esi
  4056a7:	c7 41 28 09 00 00 00 	movl   $0x9,0x28(%ecx)
  4056ae:	74 34                	je     0x4056e4
  4056b0:	8b 79 34             	mov    0x34(%ecx),%edi
  4056b3:	6a 01                	push   $0x1
  4056b5:	58                   	pop    %eax
  4056b6:	3b f8                	cmp    %eax,%edi
  4056b8:	75 08                	jne    0x4056c2
  4056ba:	85 f6                	test   %esi,%esi
  4056bc:	0f 85 36 03 00 00    	jne    0x4059f8
  4056c2:	8b 41 0c             	mov    0xc(%ecx),%eax
  4056c5:	3b 41 1c             	cmp    0x1c(%ecx),%eax
  4056c8:	74 27                	je     0x4056f1
  4056ca:	0f b6 18             	movzbl (%eax),%ebx
  4056cd:	c1 e6 08             	shl    $0x8,%esi
  4056d0:	0b f3                	or     %ebx,%esi
  4056d2:	40                   	inc    %eax
  4056d3:	89 41 0c             	mov    %eax,0xc(%ecx)
  4056d6:	8d 47 01             	lea    0x1(%edi),%eax
  4056d9:	83 f8 05             	cmp    $0x5,%eax
  4056dc:	89 71 38             	mov    %esi,0x38(%ecx)
  4056df:	89 41 34             	mov    %eax,0x34(%ecx)
  4056e2:	75 cc                	jne    0x4056b0
  4056e4:	83 fe ff             	cmp    $0xffffffff,%esi
  4056e7:	75 14                	jne    0x4056fd
  4056e9:	6a 01                	push   $0x1
  4056eb:	58                   	pop    %eax
  4056ec:	e9 07 03 00 00       	jmp    0x4059f8
  4056f1:	c7 41 28 03 00 00 00 	movl   $0x3,0x28(%ecx)
  4056f8:	e9 f9 02 00 00       	jmp    0x4059f6
  4056fd:	83 49 34 ff          	orl    $0xffffffff,0x34(%ecx)
  405701:	8b 71 28             	mov    0x28(%ecx),%esi
  405704:	8d 46 ff             	lea    -0x1(%esi),%eax
  405707:	83 f8 02             	cmp    $0x2,%eax
  40570a:	73 3c                	jae    0x405748
  40570c:	8b 04 b1             	mov    (%ecx,%esi,4),%eax
  40570f:	8d 14 b1             	lea    (%ecx,%esi,4),%edx
  405712:	3b 44 b1 10          	cmp    0x10(%ecx,%esi,4),%eax
  405716:	0f 84 da 02 00 00    	je     0x4059f6
  40571c:	8d 70 04             	lea    0x4(%eax),%esi
  40571f:	6a 04                	push   $0x4
  405721:	89 32                	mov    %esi,(%edx)
  405723:	33 d2                	xor    %edx,%edx
  405725:	8a 30                	mov    (%eax),%dh
  405727:	8b 71 2c             	mov    0x2c(%ecx),%esi
  40572a:	8a 50 01             	mov    0x1(%eax),%dl
  40572d:	83 c6 04             	add    $0x4,%esi
  405730:	0f b6 78 02          	movzbl 0x2(%eax),%edi
  405734:	0f b6 40 03          	movzbl 0x3(%eax),%eax
  405738:	c1 e2 08             	shl    $0x8,%edx
  40573b:	0b d7                	or     %edi,%edx
  40573d:	89 71 2c             	mov    %esi,0x2c(%ecx)
  405740:	c1 e2 08             	shl    $0x8,%edx
  405743:	0b d0                	or     %eax,%edx
  405745:	2b d6                	sub    %esi,%edx
  405747:	5e                   	pop    %esi
  405748:	8d 46 fc             	lea    -0x4(%esi),%eax
  40574b:	83 f8 04             	cmp    $0x4,%eax
  40574e:	73 1d                	jae    0x40576d
  405750:	8b 41 20             	mov    0x20(%ecx),%eax
  405753:	3b 41 24             	cmp    0x24(%ecx),%eax
  405756:	0f 84 35 02 00 00    	je     0x405991
  40575c:	88 10                	mov    %dl,(%eax)
  40575e:	40                   	inc    %eax
  40575f:	46                   	inc    %esi
  405760:	89 41 20             	mov    %eax,0x20(%ecx)
  405763:	83 fe 08             	cmp    $0x8,%esi
  405766:	74 05                	je     0x40576d
  405768:	c1 ea 08             	shr    $0x8,%edx
  40576b:	eb e6                	jmp    0x405753
  40576d:	8b 41 34             	mov    0x34(%ecx),%eax
  405770:	3d 00 00 00 01       	cmp    $0x1000000,%eax
  405775:	73 24                	jae    0x40579b
  405777:	8b 71 0c             	mov    0xc(%ecx),%esi
  40577a:	3b 71 1c             	cmp    0x1c(%ecx),%esi
  40577d:	0f 84 ef 01 00 00    	je     0x405972
  405783:	c1 e0 08             	shl    $0x8,%eax
  405786:	89 41 34             	mov    %eax,0x34(%ecx)
  405789:	8b 41 38             	mov    0x38(%ecx),%eax
  40578c:	0f b6 3e             	movzbl (%esi),%edi
  40578f:	c1 e0 08             	shl    $0x8,%eax
  405792:	0b c7                	or     %edi,%eax
  405794:	46                   	inc    %esi
  405795:	89 41 38             	mov    %eax,0x38(%ecx)
  405798:	89 71 0c             	mov    %esi,0xc(%ecx)
  40579b:	8b 31                	mov    (%ecx),%esi
  40579d:	8b 79 20             	mov    0x20(%ecx),%edi
  4057a0:	8b 59 10             	mov    0x10(%ecx),%ebx
  4057a3:	8b 41 24             	mov    0x24(%ecx),%eax
  4057a6:	2b de                	sub    %esi,%ebx
  4057a8:	2b c7                	sub    %edi,%eax
  4057aa:	3b c3                	cmp    %ebx,%eax
  4057ac:	72 02                	jb     0x4057b0
  4057ae:	8b c3                	mov    %ebx,%eax
  4057b0:	24 fc                	and    $0xfc,%al
  4057b2:	03 c6                	add    %esi,%eax
  4057b4:	3b f0                	cmp    %eax,%esi
  4057b6:	89 45 fc             	mov    %eax,-0x4(%ebp)
  4057b9:	0f 84 a7 00 00 00    	je     0x405866
  4057bf:	0f b6 06             	movzbl (%esi),%eax
  4057c2:	c1 e2 18             	shl    $0x18,%edx
  4057c5:	88 07                	mov    %al,(%edi)
  4057c7:	0b d0                	or     %eax,%edx
  4057c9:	83 c0 18             	add    $0x18,%eax
  4057cc:	47                   	inc    %edi
  4057cd:	a8 fe                	test   $0xfe,%al
  4057cf:	0f 84 8c 00 00 00    	je     0x405861
  4057d5:	8d 82 80 ff ff f0    	lea    -0xf000080(%edx),%eax
  4057db:	a9 f0 ff ff ff       	test   $0xfffffff0,%eax
  4057e0:	74 7f                	je     0x405861
  4057e2:	0f b6 46 01          	movzbl 0x1(%esi),%eax
  4057e6:	c1 e2 18             	shl    $0x18,%edx
  4057e9:	88 07                	mov    %al,(%edi)
  4057eb:	0b d0                	or     %eax,%edx
  4057ed:	83 c0 18             	add    $0x18,%eax
  4057f0:	47                   	inc    %edi
  4057f1:	a8 fe                	test   $0xfe,%al
  4057f3:	74 6c                	je     0x405861
  4057f5:	8d 82 80 ff ff f0    	lea    -0xf000080(%edx),%eax
  4057fb:	a9 f0 ff ff ff       	test   $0xfffffff0,%eax
  405800:	74 5f                	je     0x405861
  405802:	0f b6 46 02          	movzbl 0x2(%esi),%eax
  405806:	c1 e2 18             	shl    $0x18,%edx
  405809:	88 07                	mov    %al,(%edi)
  40580b:	0b d0                	or     %eax,%edx
  40580d:	83 c0 18             	add    $0x18,%eax
  405810:	47                   	inc    %edi
  405811:	a8 fe                	test   $0xfe,%al
  405813:	74 4c                	je     0x405861
  405815:	8d 82 80 ff ff f0    	lea    -0xf000080(%edx),%eax
  40581b:	a9 f0 ff ff ff       	test   $0xfffffff0,%eax
  405820:	74 3f                	je     0x405861
  405822:	0f b6 46 03          	movzbl 0x3(%esi),%eax
  405826:	c1 e2 18             	shl    $0x18,%edx
  405829:	88 07                	mov    %al,(%edi)
  40582b:	0b d0                	or     %eax,%edx
  40582d:	83 c0 18             	add    $0x18,%eax
  405830:	47                   	inc    %edi
  405831:	a8 fe                	test   $0xfe,%al
  405833:	74 2c                	je     0x405861
  405835:	8d 82 80 ff ff f0    	lea    -0xf000080(%edx),%eax
  40583b:	a9 f0 ff ff ff       	test   $0xfffffff0,%eax
  405840:	74 1f                	je     0x405861
  405842:	83 c6 04             	add    $0x4,%esi
  405845:	3b 75 fc             	cmp    -0x4(%ebp),%esi
  405848:	74 1c                	je     0x405866
  40584a:	0f b6 1e             	movzbl (%esi),%ebx
  40584d:	c1 e2 18             	shl    $0x18,%edx
  405850:	88 1f                	mov    %bl,(%edi)
  405852:	0b d3                	or     %ebx,%edx
  405854:	83 c3 18             	add    $0x18,%ebx
  405857:	47                   	inc    %edi
  405858:	f6 c3 fe             	test   $0xfe,%bl
  40585b:	0f 85 74 ff ff ff    	jne    0x4057d5
  405861:	3b 75 fc             	cmp    -0x4(%ebp),%esi
  405864:	75 34                	jne    0x40589a
  405866:	3b 71 10             	cmp    0x10(%ecx),%esi
  405869:	0f 84 0c 01 00 00    	je     0x40597b
  40586f:	3b 79 24             	cmp    0x24(%ecx),%edi
  405872:	0f 84 03 01 00 00    	je     0x40597b
  405878:	0f b6 06             	movzbl (%esi),%eax
  40587b:	c1 e2 18             	shl    $0x18,%edx
  40587e:	88 07                	mov    %al,(%edi)
  405880:	0b d0                	or     %eax,%edx
  405882:	83 c0 18             	add    $0x18,%eax
  405885:	47                   	inc    %edi
  405886:	a8 fe                	test   $0xfe,%al
  405888:	74 10                	je     0x40589a
  40588a:	8d 82 80 ff ff f0    	lea    -0xf000080(%edx),%eax
  405890:	a9 f0 ff ff ff       	test   $0xfffffff0,%eax
  405895:	74 03                	je     0x40589a
  405897:	46                   	inc    %esi
  405898:	eb cc                	jmp    0x405866
  40589a:	8b c7                	mov    %edi,%eax
  40589c:	8d 72 17             	lea    0x17(%edx),%esi
  40589f:	2b 41 20             	sub    0x20(%ecx),%eax
  4058a2:	89 79 20             	mov    %edi,0x20(%ecx)
  4058a5:	c1 ee 06             	shr    $0x6,%esi
  4058a8:	01 01                	add    %eax,(%ecx)
  4058aa:	01 41 2c             	add    %eax,0x2c(%ecx)
  4058ad:	83 e6 01             	and    $0x1,%esi
  4058b0:	8b c2                	mov    %edx,%eax
  4058b2:	8b fe                	mov    %esi,%edi
  4058b4:	c1 e8 18             	shr    $0x18,%eax
  4058b7:	f7 df                	neg    %edi
  4058b9:	23 c7                	and    %edi,%eax
  4058bb:	8b fa                	mov    %edx,%edi
  4058bd:	c1 ef 05             	shr    $0x5,%edi
  4058c0:	83 e7 01             	and    $0x1,%edi
  4058c3:	03 f0                	add    %eax,%esi
  4058c5:	03 fe                	add    %esi,%edi
  4058c7:	8b 71 34             	mov    0x34(%ecx),%esi
  4058ca:	0f b7 44 79 3c       	movzwl 0x3c(%ecx,%edi,2),%eax
  4058cf:	8d 5c 79 3c          	lea    0x3c(%ecx,%edi,2),%ebx
  4058d3:	8b fe                	mov    %esi,%edi
  4058d5:	c1 ef 0b             	shr    $0xb,%edi
  4058d8:	0f af f8             	imul   %eax,%edi
  4058db:	89 7d fc             	mov    %edi,-0x4(%ebp)
  4058de:	8b 79 38             	mov    0x38(%ecx),%edi
  4058e1:	3b 7d fc             	cmp    -0x4(%ebp),%edi
  4058e4:	73 1a                	jae    0x405900
  4058e6:	8b 75 fc             	mov    -0x4(%ebp),%esi
  4058e9:	89 71 34             	mov    %esi,0x34(%ecx)
  4058ec:	be 00 08 00 00       	mov    $0x800,%esi
  4058f1:	2b f0                	sub    %eax,%esi
  4058f3:	c1 ee 05             	shr    $0x5,%esi
  4058f6:	03 f0                	add    %eax,%esi
  4058f8:	66 89 33             	mov    %si,(%ebx)
  4058fb:	e9 6d fe ff ff       	jmp    0x40576d
  405900:	2b 75 fc             	sub    -0x4(%ebp),%esi
  405903:	2b 7d fc             	sub    -0x4(%ebp),%edi
  405906:	83 c2 d7             	add    $0xffffffd7,%edx
  405909:	89 71 34             	mov    %esi,0x34(%ecx)
  40590c:	8b f0                	mov    %eax,%esi
  40590e:	c1 ea 06             	shr    $0x6,%edx
  405911:	c1 ee 05             	shr    $0x5,%esi
  405914:	83 e2 01             	and    $0x1,%edx
  405917:	2b c6                	sub    %esi,%eax
  405919:	42                   	inc    %edx
  40591a:	89 79 38             	mov    %edi,0x38(%ecx)
  40591d:	66 89 03             	mov    %ax,(%ebx)
  405920:	8b 34 91             	mov    (%ecx,%edx,4),%esi
  405923:	8d 04 91             	lea    (%ecx,%edx,4),%eax
  405926:	3b 74 91 10          	cmp    0x10(%ecx,%edx,4),%esi
  40592a:	74 6d                	je     0x405999
  40592c:	0f b6 7e 02          	movzbl 0x2(%esi),%edi
  405930:	33 d2                	xor    %edx,%edx
  405932:	8a 36                	mov    (%esi),%dh
  405934:	8a 56 01             	mov    0x1(%esi),%dl
  405937:	83 c6 04             	add    $0x4,%esi
  40593a:	c1 e2 08             	shl    $0x8,%edx
  40593d:	0b d7                	or     %edi,%edx
  40593f:	0f b6 7e ff          	movzbl -0x1(%esi),%edi
  405943:	89 30                	mov    %esi,(%eax)
  405945:	8b 41 2c             	mov    0x2c(%ecx),%eax
  405948:	8b 71 20             	mov    0x20(%ecx),%esi
  40594b:	83 c0 04             	add    $0x4,%eax
  40594e:	c1 e2 08             	shl    $0x8,%edx
  405951:	0b d7                	or     %edi,%edx
  405953:	89 41 2c             	mov    %eax,0x2c(%ecx)
  405956:	2b d0                	sub    %eax,%edx
  405958:	8b 41 24             	mov    0x24(%ecx),%eax
  40595b:	2b c6                	sub    %esi,%eax
  40595d:	83 f8 04             	cmp    $0x4,%eax
  405960:	72 3c                	jb     0x40599e
  405962:	89 16                	mov    %edx,(%esi)
  405964:	c1 ea 18             	shr    $0x18,%edx
  405967:	83 c6 04             	add    $0x4,%esi
  40596a:	89 71 20             	mov    %esi,0x20(%ecx)
  40596d:	e9 fb fd ff ff       	jmp    0x40576d
  405972:	c7 41 28 03 00 00 00 	movl   $0x3,0x28(%ecx)
  405979:	eb 19                	jmp    0x405994
  40597b:	8b c6                	mov    %esi,%eax
  40597d:	89 79 20             	mov    %edi,0x20(%ecx)
  405980:	2b 01                	sub    (%ecx),%eax
  405982:	89 31                	mov    %esi,(%ecx)
  405984:	2b 71 10             	sub    0x10(%ecx),%esi
  405987:	01 41 2c             	add    %eax,0x2c(%ecx)
  40598a:	f7 de                	neg    %esi
  40598c:	1b f6                	sbb    %esi,%esi
  40598e:	83 e6 08             	and    $0x8,%esi
  405991:	89 71 28             	mov    %esi,0x28(%ecx)
  405994:	89 51 30             	mov    %edx,0x30(%ecx)
  405997:	eb 5d                	jmp    0x4059f6
  405999:	89 51 28             	mov    %edx,0x28(%ecx)
  40599c:	eb 2e                	jmp    0x4059cc
  40599e:	85 c0                	test   %eax,%eax
  4059a0:	76 1b                	jbe    0x4059bd
  4059a2:	88 16                	mov    %dl,(%esi)
  4059a4:	c1 ea 08             	shr    $0x8,%edx
  4059a7:	83 f8 01             	cmp    $0x1,%eax
  4059aa:	76 11                	jbe    0x4059bd
  4059ac:	88 56 01             	mov    %dl,0x1(%esi)
  4059af:	c1 ea 08             	shr    $0x8,%edx
  4059b2:	83 f8 02             	cmp    $0x2,%eax
  4059b5:	76 06                	jbe    0x4059bd
  4059b7:	88 56 02             	mov    %dl,0x2(%esi)
  4059ba:	c1 ea 08             	shr    $0x8,%edx
  4059bd:	89 51 30             	mov    %edx,0x30(%ecx)
  4059c0:	8d 14 30             	lea    (%eax,%esi,1),%edx
  4059c3:	83 c0 04             	add    $0x4,%eax
  4059c6:	89 51 20             	mov    %edx,0x20(%ecx)
  4059c9:	89 41 28             	mov    %eax,0x28(%ecx)
  4059cc:	8b 41 34             	mov    0x34(%ecx),%eax
  4059cf:	3d 00 00 00 01       	cmp    $0x1000000,%eax
  4059d4:	73 20                	jae    0x4059f6
  4059d6:	8b 51 0c             	mov    0xc(%ecx),%edx
  4059d9:	3b 51 1c             	cmp    0x1c(%ecx),%edx
  4059dc:	74 18                	je     0x4059f6
  4059de:	c1 e0 08             	shl    $0x8,%eax
  4059e1:	89 41 34             	mov    %eax,0x34(%ecx)
  4059e4:	8b 41 38             	mov    0x38(%ecx),%eax
  4059e7:	0f b6 32             	movzbl (%edx),%esi
  4059ea:	c1 e0 08             	shl    $0x8,%eax
  4059ed:	0b c6                	or     %esi,%eax
  4059ef:	42                   	inc    %edx
  4059f0:	89 41 38             	mov    %eax,0x38(%ecx)
  4059f3:	89 51 0c             	mov    %edx,0xc(%ecx)
  4059f6:	33 c0                	xor    %eax,%eax
  4059f8:	5f                   	pop    %edi
  4059f9:	5e                   	pop    %esi
  4059fa:	5b                   	pop    %ebx
  4059fb:	c9                   	leave  
  4059fc:	c3                   	ret    
  4059fd:	55                   	push   %ebp
  4059fe:	8b ec                	mov    %esp,%ebp
  405a00:	81 ec d0 02 00 00    	sub    $0x2d0,%esp
  405a06:	56                   	push   %esi
  405a07:	ff 15 54 80 40 00    	call   *0x408054
  405a0d:	66 3d 06 00          	cmp    $0x6,%ax
  405a11:	74 2a                	je     0x405a3d
  405a13:	68 ec 8b 40 00       	push   $0x408bec
  405a18:	68 08 85 40 00       	push   $0x408508
  405a1d:	ff 15 84 80 40 00    	call   *0x408084
  405a23:	50                   	push   %eax
  405a24:	ff 15 88 80 40 00    	call   *0x408088
  405a2a:	85 c0                	test   %eax,%eax
  405a2c:	74 0f                	je     0x405a3d
  405a2e:	68 00 0c 00 00       	push   $0xc00
  405a33:	ff d0                	call   *%eax
  405a35:	85 c0                	test   %eax,%eax
  405a37:	0f 85 8d 00 00 00    	jne    0x405aca
  405a3d:	8d 85 30 fd ff ff    	lea    -0x2d0(%ebp),%eax
  405a43:	68 06 01 00 00       	push   $0x106
  405a48:	50                   	push   %eax
  405a49:	ff 15 40 80 40 00    	call   *0x408040
  405a4f:	85 c0                	test   %eax,%eax
  405a51:	74 77                	je     0x405aca
  405a53:	3d 04 01 00 00       	cmp    $0x104,%eax
  405a58:	77 70                	ja     0x405aca
  405a5a:	66 83 bc 45 2e fd ff 	cmpw   $0x5c,-0x2d2(%ebp,%eax,2)
  405a61:	ff 5c 
  405a63:	74 0b                	je     0x405a70
  405a65:	66 c7 84 45 30 fd ff 	movw   $0x5c,-0x2d0(%ebp,%eax,2)
  405a6c:	ff 5c 00 
  405a6f:	40                   	inc    %eax
  405a70:	8b 35 94 8b 40 00    	mov    0x408b94,%esi
  405a76:	80 3e 00             	cmpb   $0x0,(%esi)
  405a79:	74 4f                	je     0x405aca
  405a7b:	57                   	push   %edi
  405a7c:	8d bc 45 30 fd ff ff 	lea    -0x2d0(%ebp,%eax,2),%edi
  405a83:	8b c7                	mov    %edi,%eax
  405a85:	8a 0e                	mov    (%esi),%cl
  405a87:	46                   	inc    %esi
  405a88:	84 c9                	test   %cl,%cl
  405a8a:	74 0b                	je     0x405a97
  405a8c:	66 0f b6 c9          	movzbw %cl,%cx
  405a90:	66 89 08             	mov    %cx,(%eax)
  405a93:	40                   	inc    %eax
  405a94:	40                   	inc    %eax
  405a95:	eb ee                	jmp    0x405a85
  405a97:	66 83 60 08 00       	andw   $0x0,0x8(%eax)
  405a9c:	66 c7 00 2e 00       	movw   $0x2e,(%eax)
  405aa1:	66 c7 40 02 64 00    	movw   $0x64,0x2(%eax)
  405aa7:	66 c7 40 04 6c 00    	movw   $0x6c,0x4(%eax)
  405aad:	66 c7 40 06 6c 00    	movw   $0x6c,0x6(%eax)
  405ab3:	6a 08                	push   $0x8
  405ab5:	8d 85 30 fd ff ff    	lea    -0x2d0(%ebp),%eax
  405abb:	6a 00                	push   $0x0
  405abd:	50                   	push   %eax
  405abe:	ff 15 58 80 40 00    	call   *0x408058
  405ac4:	80 3e 00             	cmpb   $0x0,(%esi)
  405ac7:	75 ba                	jne    0x405a83
  405ac9:	5f                   	pop    %edi
  405aca:	5e                   	pop    %esi
  405acb:	c9                   	leave  
  405acc:	c3                   	ret    
  405acd:	83 61 4c 00          	andl   $0x0,0x4c(%ecx)
  405ad1:	c7 41 44 13 01 00 00 	movl   $0x113,0x44(%ecx)
  405ad8:	85 d2                	test   %edx,%edx
  405ada:	b8 14 01 00 00       	mov    $0x114,%eax
  405adf:	74 0b                	je     0x405aec
  405ae1:	83 61 28 00          	andl   $0x0,0x28(%ecx)
  405ae5:	83 61 2c 00          	andl   $0x0,0x2c(%ecx)
  405ae9:	89 41 44             	mov    %eax,0x44(%ecx)
  405aec:	83 7c 24 04 00       	cmpl   $0x0,0x4(%esp)
  405af1:	74 03                	je     0x405af6
  405af3:	89 41 44             	mov    %eax,0x44(%ecx)
  405af6:	c2 04 00             	ret    $0x4
  405af9:	83 61 18 00          	andl   $0x0,0x18(%ecx)
  405afd:	6a 01                	push   $0x1
  405aff:	5a                   	pop    %edx
  405b00:	52                   	push   %edx
  405b01:	e8 c7 ff ff ff       	call   0x405acd
  405b06:	c3                   	ret    
  405b07:	55                   	push   %ebp
  405b08:	8b ec                	mov    %esp,%ebp
  405b0a:	83 ec 10             	sub    $0x10,%esp
  405b0d:	53                   	push   %ebx
  405b0e:	8b 5d 0c             	mov    0xc(%ebp),%ebx
  405b11:	89 55 f8             	mov    %edx,-0x8(%ebp)
  405b14:	56                   	push   %esi
  405b15:	8b 03                	mov    (%ebx),%eax
  405b17:	33 d2                	xor    %edx,%edx
  405b19:	89 45 0c             	mov    %eax,0xc(%ebp)
  405b1c:	8b 45 14             	mov    0x14(%ebp),%eax
  405b1f:	8b f1                	mov    %ecx,%esi
  405b21:	89 13                	mov    %edx,(%ebx)
  405b23:	89 10                	mov    %edx,(%eax)
  405b25:	57                   	push   %edi
  405b26:	8b 46 44             	mov    0x44(%esi),%eax
  405b29:	3d 12 01 00 00       	cmp    $0x112,%eax
  405b2e:	0f 86 e2 00 00 00    	jbe    0x405c16
  405b34:	3d 14 01 00 00       	cmp    $0x114,%eax
  405b39:	76 16                	jbe    0x405b51
  405b3b:	33 c9                	xor    %ecx,%ecx
  405b3d:	3d ff 01 00 00       	cmp    $0x1ff,%eax
  405b42:	0f 95 c1             	setne  %cl
  405b45:	49                   	dec    %ecx
  405b46:	83 e1 0a             	and    $0xa,%ecx
  405b49:	41                   	inc    %ecx
  405b4a:	8b c1                	mov    %ecx,%eax
  405b4c:	e9 3e 03 00 00       	jmp    0x405e8f
  405b51:	39 55 0c             	cmp    %edx,0xc(%ebp)
  405b54:	76 1e                	jbe    0x405b74
  405b56:	8b 46 4c             	mov    0x4c(%esi),%eax
  405b59:	83 f8 05             	cmp    $0x5,%eax
  405b5c:	73 16                	jae    0x405b74
  405b5e:	8b 4d 08             	mov    0x8(%ebp),%ecx
  405b61:	8a 09                	mov    (%ecx),%cl
  405b63:	88 4c 30 50          	mov    %cl,0x50(%eax,%esi,1)
  405b67:	ff 46 4c             	incl   0x4c(%esi)
  405b6a:	ff 45 08             	incl   0x8(%ebp)
  405b6d:	ff 03                	incl   (%ebx)
  405b6f:	ff 4d 0c             	decl   0xc(%ebp)
  405b72:	75 e2                	jne    0x405b56
  405b74:	8b 46 4c             	mov    0x4c(%esi),%eax
  405b77:	3b c2                	cmp    %edx,%eax
  405b79:	74 0a                	je     0x405b85
  405b7b:	80 7e 50 00          	cmpb   $0x0,0x50(%esi)
  405b7f:	0f 85 07 03 00 00    	jne    0x405e8c
  405b85:	83 f8 05             	cmp    $0x5,%eax
  405b88:	0f 82 cb 02 00 00    	jb     0x405e59
  405b8e:	0f b6 4e 53          	movzbl 0x53(%esi),%ecx
  405b92:	33 c0                	xor    %eax,%eax
  405b94:	8a 66 51             	mov    0x51(%esi),%ah
  405b97:	8a 46 52             	mov    0x52(%esi),%al
  405b9a:	c1 e0 08             	shl    $0x8,%eax
  405b9d:	0b c1                	or     %ecx,%eax
  405b9f:	0f b6 4e 54          	movzbl 0x54(%esi),%ecx
  405ba3:	c1 e0 08             	shl    $0x8,%eax
  405ba6:	0b c1                	or     %ecx,%eax
  405ba8:	39 56 2c             	cmp    %edx,0x2c(%esi)
  405bab:	89 46 24             	mov    %eax,0x24(%esi)
  405bae:	75 10                	jne    0x405bc0
  405bb0:	39 56 28             	cmp    %edx,0x28(%esi)
  405bb3:	75 0b                	jne    0x405bc0
  405bb5:	3d 00 fc ff bf       	cmp    $0xbffffc00,%eax
  405bba:	0f 83 cc 02 00 00    	jae    0x405e8c
  405bc0:	83 4e 20 ff          	orl    $0xffffffff,0x20(%esi)
  405bc4:	81 7e 44 13 01 00 00 	cmpl   $0x113,0x44(%esi)
  405bcb:	89 56 4c             	mov    %edx,0x4c(%esi)
  405bce:	76 3e                	jbe    0x405c0e
  405bd0:	8a 4e 01             	mov    0x1(%esi),%cl
  405bd3:	8a 06                	mov    (%esi),%al
  405bd5:	03 c8                	add    %eax,%ecx
  405bd7:	b8 00 03 00 00       	mov    $0x300,%eax
  405bdc:	8b 7e 08             	mov    0x8(%esi),%edi
  405bdf:	d3 e0                	shl    %cl,%eax
  405be1:	05 c0 07 00 00       	add    $0x7c0,%eax
  405be6:	74 12                	je     0x405bfa
  405be8:	8b c8                	mov    %eax,%ecx
  405bea:	b8 00 04 00 04       	mov    $0x4000400,%eax
  405bef:	d1 e9                	shr    %ecx
  405bf1:	f3 ab                	rep stos %eax,%es:(%edi)
  405bf3:	13 c9                	adc    %ecx,%ecx
  405bf5:	33 d2                	xor    %edx,%edx
  405bf7:	66 f3 ab             	rep stos %ax,%es:(%edi)
  405bfa:	6a 01                	push   $0x1
  405bfc:	89 56 40             	mov    %edx,0x40(%esi)
  405bff:	5f                   	pop    %edi
  405c00:	89 7e 3c             	mov    %edi,0x3c(%esi)
  405c03:	89 7e 38             	mov    %edi,0x38(%esi)
  405c06:	89 7e 34             	mov    %edi,0x34(%esi)
  405c09:	89 7e 30             	mov    %edi,0x30(%esi)
  405c0c:	eb 03                	jmp    0x405c11
  405c0e:	6a 01                	push   $0x1
  405c10:	5f                   	pop    %edi
  405c11:	89 56 44             	mov    %edx,0x44(%esi)
  405c14:	eb 03                	jmp    0x405c19
  405c16:	6a 01                	push   $0x1
  405c18:	5f                   	pop    %edi
  405c19:	81 7e 44 12 01 00 00 	cmpl   $0x112,0x44(%esi)
  405c20:	0f 84 b5 01 00 00    	je     0x405ddb
  405c26:	8b 55 f8             	mov    -0x8(%ebp),%edx
  405c29:	8b ce                	mov    %esi,%ecx
  405c2b:	e8 66 02 00 00       	call   0x405e96
  405c30:	8b 45 f8             	mov    -0x8(%ebp),%eax
  405c33:	33 c9                	xor    %ecx,%ecx
  405c35:	39 46 18             	cmp    %eax,0x18(%esi)
  405c38:	89 4d fc             	mov    %ecx,-0x4(%ebp)
  405c3b:	72 24                	jb     0x405c61
  405c3d:	8b 46 44             	mov    0x44(%esi),%eax
  405c40:	3b c1                	cmp    %ecx,%eax
  405c42:	75 09                	jne    0x405c4d
  405c44:	39 4e 24             	cmp    %ecx,0x24(%esi)
  405c47:	0f 84 a1 01 00 00    	je     0x405dee
  405c4d:	39 4d 10             	cmp    %ecx,0x10(%ebp)
  405c50:	0f 84 a3 01 00 00    	je     0x405df9
  405c56:	3b c1                	cmp    %ecx,%eax
  405c58:	0f 85 9f 01 00 00    	jne    0x405dfd
  405c5e:	89 7d fc             	mov    %edi,-0x4(%ebp)
  405c61:	8b 7e 4c             	mov    0x4c(%esi),%edi
  405c64:	3b f9                	cmp    %ecx,%edi
  405c66:	0f 85 96 00 00 00    	jne    0x405d02
  405c6c:	8b 45 0c             	mov    0xc(%ebp),%eax
  405c6f:	83 cf ff             	or     $0xffffffff,%edi
  405c72:	83 f8 14             	cmp    $0x14,%eax
  405c75:	72 0f                	jb     0x405c86
  405c77:	83 7d fc 00          	cmpl   $0x0,-0x4(%ebp)
  405c7b:	75 09                	jne    0x405c86
  405c7d:	8b 4d 08             	mov    0x8(%ebp),%ecx
  405c80:	8d 44 08 ec          	lea    -0x14(%eax,%ecx,1),%eax
  405c84:	eb 41                	jmp    0x405cc7
  405c86:	8b 7d 08             	mov    0x8(%ebp),%edi
  405c89:	8b ce                	mov    %esi,%ecx
  405c8b:	03 c7                	add    %edi,%eax
  405c8d:	8b d7                	mov    %edi,%edx
  405c8f:	89 45 f4             	mov    %eax,-0xc(%ebp)
  405c92:	8d 45 f4             	lea    -0xc(%ebp),%eax
  405c95:	50                   	push   %eax
  405c96:	e8 ea 0d 00 00       	call   0x406a85
  405c9b:	85 c0                	test   %eax,%eax
  405c9d:	0f 84 6a 01 00 00    	je     0x405e0d
  405ca3:	8b 7d f4             	mov    -0xc(%ebp),%edi
  405ca6:	8b 4d 08             	mov    0x8(%ebp),%ecx
  405ca9:	2b f9                	sub    %ecx,%edi
  405cab:	83 ff 14             	cmp    $0x14,%edi
  405cae:	0f 87 c6 01 00 00    	ja     0x405e7a
  405cb4:	83 7d fc 00          	cmpl   $0x0,-0x4(%ebp)
  405cb8:	74 0b                	je     0x405cc5
  405cba:	6a 02                	push   $0x2
  405cbc:	5a                   	pop    %edx
  405cbd:	3b c2                	cmp    %edx,%eax
  405cbf:	0f 85 69 01 00 00    	jne    0x405e2e
  405cc5:	8b c1                	mov    %ecx,%eax
  405cc7:	8b 4d 08             	mov    0x8(%ebp),%ecx
  405cca:	8b 55 f8             	mov    -0x8(%ebp),%edx
  405ccd:	89 4e 1c             	mov    %ecx,0x1c(%esi)
  405cd0:	50                   	push   %eax
  405cd1:	8b ce                	mov    %esi,%ecx
  405cd3:	e8 29 02 00 00       	call   0x405f01
  405cd8:	8b 4e 1c             	mov    0x1c(%esi),%ecx
  405cdb:	2b 4d 08             	sub    0x8(%ebp),%ecx
  405cde:	85 ff                	test   %edi,%edi
  405ce0:	7d 0b                	jge    0x405ced
  405ce2:	3b 4d 0c             	cmp    0xc(%ebp),%ecx
  405ce5:	0f 87 8f 01 00 00    	ja     0x405e7a
  405ceb:	eb 08                	jmp    0x405cf5
  405ced:	3b f9                	cmp    %ecx,%edi
  405cef:	0f 85 85 01 00 00    	jne    0x405e7a
  405cf5:	01 4d 08             	add    %ecx,0x8(%ebp)
  405cf8:	29 4d 0c             	sub    %ecx,0xc(%ebp)
  405cfb:	01 0b                	add    %ecx,(%ebx)
  405cfd:	e9 bf 00 00 00       	jmp    0x405dc1
  405d02:	83 4d f4 ff          	orl    $0xffffffff,-0xc(%ebp)
  405d06:	33 c0                	xor    %eax,%eax
  405d08:	83 ff 14             	cmp    $0x14,%edi
  405d0b:	89 45 f0             	mov    %eax,-0x10(%ebp)
  405d0e:	73 1e                	jae    0x405d2e
  405d10:	3b 45 0c             	cmp    0xc(%ebp),%eax
  405d13:	73 14                	jae    0x405d29
  405d15:	8b 4d 08             	mov    0x8(%ebp),%ecx
  405d18:	47                   	inc    %edi
  405d19:	8a 0c 08             	mov    (%eax,%ecx,1),%cl
  405d1c:	40                   	inc    %eax
  405d1d:	88 4c 37 4f          	mov    %cl,0x4f(%edi,%esi,1)
  405d21:	83 ff 14             	cmp    $0x14,%edi
  405d24:	89 45 f0             	mov    %eax,-0x10(%ebp)
  405d27:	72 e7                	jb     0x405d10
  405d29:	83 ff 14             	cmp    $0x14,%edi
  405d2c:	72 06                	jb     0x405d34
  405d2e:	83 7d fc 00          	cmpl   $0x0,-0x4(%ebp)
  405d32:	74 41                	je     0x405d75
  405d34:	8d 56 50             	lea    0x50(%esi),%edx
  405d37:	8b ce                	mov    %esi,%ecx
  405d39:	8d 04 3a             	lea    (%edx,%edi,1),%eax
  405d3c:	89 45 f4             	mov    %eax,-0xc(%ebp)
  405d3f:	8d 45 f4             	lea    -0xc(%ebp),%eax
  405d42:	50                   	push   %eax
  405d43:	e8 3d 0d 00 00       	call   0x406a85
  405d48:	85 c0                	test   %eax,%eax
  405d4a:	0f 84 fc 00 00 00    	je     0x405e4c
  405d50:	8b 4d f4             	mov    -0xc(%ebp),%ecx
  405d53:	2b ce                	sub    %esi,%ecx
  405d55:	83 e9 50             	sub    $0x50,%ecx
  405d58:	3b 4e 4c             	cmp    0x4c(%esi),%ecx
  405d5b:	89 4d f4             	mov    %ecx,-0xc(%ebp)
  405d5e:	0f 82 16 01 00 00    	jb     0x405e7a
  405d64:	83 7d fc 00          	cmpl   $0x0,-0x4(%ebp)
  405d68:	74 0b                	je     0x405d75
  405d6a:	6a 02                	push   $0x2
  405d6c:	59                   	pop    %ecx
  405d6d:	3b c1                	cmp    %ecx,%eax
  405d6f:	0f 85 f1 00 00 00    	jne    0x405e66
  405d75:	8b 55 f8             	mov    -0x8(%ebp),%edx
  405d78:	8d 46 50             	lea    0x50(%esi),%eax
  405d7b:	50                   	push   %eax
  405d7c:	8b ce                	mov    %esi,%ecx
  405d7e:	89 46 1c             	mov    %eax,0x1c(%esi)
  405d81:	e8 7b 01 00 00       	call   0x405f01
  405d86:	8b 4e 1c             	mov    0x1c(%esi),%ecx
  405d89:	8b 56 4c             	mov    0x4c(%esi),%edx
  405d8c:	2b ce                	sub    %esi,%ecx
  405d8e:	83 e9 50             	sub    $0x50,%ecx
  405d91:	83 7d f4 00          	cmpl   $0x0,-0xc(%ebp)
  405d95:	7d 13                	jge    0x405daa
  405d97:	83 f9 14             	cmp    $0x14,%ecx
  405d9a:	0f 87 da 00 00 00    	ja     0x405e7a
  405da0:	3b ca                	cmp    %edx,%ecx
  405da2:	0f 82 d2 00 00 00    	jb     0x405e7a
  405da8:	eb 09                	jmp    0x405db3
  405daa:	39 4d f4             	cmp    %ecx,-0xc(%ebp)
  405dad:	0f 85 c7 00 00 00    	jne    0x405e7a
  405db3:	2b ca                	sub    %edx,%ecx
  405db5:	01 4d 08             	add    %ecx,0x8(%ebp)
  405db8:	29 4d 0c             	sub    %ecx,0xc(%ebp)
  405dbb:	01 0b                	add    %ecx,(%ebx)
  405dbd:	83 66 4c 00          	andl   $0x0,0x4c(%esi)
  405dc1:	85 c0                	test   %eax,%eax
  405dc3:	0f 85 bc 00 00 00    	jne    0x405e85
  405dc9:	81 7e 44 12 01 00 00 	cmpl   $0x112,0x44(%esi)
  405dd0:	6a 01                	push   $0x1
  405dd2:	5f                   	pop    %edi
  405dd3:	0f 85 4d fe ff ff    	jne    0x405c26
  405dd9:	33 d2                	xor    %edx,%edx
  405ddb:	39 56 24             	cmp    %edx,0x24(%esi)
  405dde:	74 07                	je     0x405de7
  405de0:	8b c7                	mov    %edi,%eax
  405de2:	e9 a8 00 00 00       	jmp    0x405e8f
  405de7:	8b 45 14             	mov    0x14(%ebp),%eax
  405dea:	89 38                	mov    %edi,(%eax)
  405dec:	eb 74                	jmp    0x405e62
  405dee:	8b 45 14             	mov    0x14(%ebp),%eax
  405df1:	c7 00 04 00 00 00    	movl   $0x4,(%eax)
  405df7:	eb 69                	jmp    0x405e62
  405df9:	33 c0                	xor    %eax,%eax
  405dfb:	eb 02                	jmp    0x405dff
  405dfd:	8b c7                	mov    %edi,%eax
  405dff:	8b 4d 14             	mov    0x14(%ebp),%ecx
  405e02:	c7 01 02 00 00 00    	movl   $0x2,(%ecx)
  405e08:	e9 82 00 00 00       	jmp    0x405e8f
  405e0d:	8b 45 0c             	mov    0xc(%ebp),%eax
  405e10:	83 f8 14             	cmp    $0x14,%eax
  405e13:	73 65                	jae    0x405e7a
  405e15:	01 03                	add    %eax,(%ebx)
  405e17:	33 c9                	xor    %ecx,%ecx
  405e19:	85 c0                	test   %eax,%eax
  405e1b:	89 46 4c             	mov    %eax,0x4c(%esi)
  405e1e:	76 39                	jbe    0x405e59
  405e20:	8a 14 39             	mov    (%ecx,%edi,1),%dl
  405e23:	88 54 0e 50          	mov    %dl,0x50(%esi,%ecx,1)
  405e27:	41                   	inc    %ecx
  405e28:	3b c8                	cmp    %eax,%ecx
  405e2a:	72 f4                	jb     0x405e20
  405e2c:	eb 2b                	jmp    0x405e59
  405e2e:	01 3b                	add    %edi,(%ebx)
  405e30:	33 c0                	xor    %eax,%eax
  405e32:	85 ff                	test   %edi,%edi
  405e34:	89 7e 4c             	mov    %edi,0x4c(%esi)
  405e37:	76 0c                	jbe    0x405e45
  405e39:	8a 1c 08             	mov    (%eax,%ecx,1),%bl
  405e3c:	88 5c 06 50          	mov    %bl,0x50(%esi,%eax,1)
  405e40:	40                   	inc    %eax
  405e41:	3b c7                	cmp    %edi,%eax
  405e43:	72 f4                	jb     0x405e39
  405e45:	8b 45 14             	mov    0x14(%ebp),%eax
  405e48:	89 10                	mov    %edx,(%eax)
  405e4a:	eb 40                	jmp    0x405e8c
  405e4c:	83 ff 14             	cmp    $0x14,%edi
  405e4f:	73 29                	jae    0x405e7a
  405e51:	8b 45 f0             	mov    -0x10(%ebp),%eax
  405e54:	89 7e 4c             	mov    %edi,0x4c(%esi)
  405e57:	01 03                	add    %eax,(%ebx)
  405e59:	8b 45 14             	mov    0x14(%ebp),%eax
  405e5c:	c7 00 03 00 00 00    	movl   $0x3,(%eax)
  405e62:	33 c0                	xor    %eax,%eax
  405e64:	eb 29                	jmp    0x405e8f
  405e66:	8b 45 f4             	mov    -0xc(%ebp),%eax
  405e69:	8b d0                	mov    %eax,%edx
  405e6b:	2b 56 4c             	sub    0x4c(%esi),%edx
  405e6e:	01 13                	add    %edx,(%ebx)
  405e70:	89 46 4c             	mov    %eax,0x4c(%esi)
  405e73:	8b 45 14             	mov    0x14(%ebp),%eax
  405e76:	89 08                	mov    %ecx,(%eax)
  405e78:	eb 12                	jmp    0x405e8c
  405e7a:	c7 46 44 ff 01 00 00 	movl   $0x1ff,0x44(%esi)
  405e81:	6a 0b                	push   $0xb
  405e83:	eb 09                	jmp    0x405e8e
  405e85:	c7 46 44 00 02 00 00 	movl   $0x200,0x44(%esi)
  405e8c:	6a 01                	push   $0x1
  405e8e:	58                   	pop    %eax
  405e8f:	5f                   	pop    %edi
  405e90:	5e                   	pop    %esi
  405e91:	5b                   	pop    %ebx
  405e92:	c9                   	leave  
  405e93:	c2 10 00             	ret    $0x10
  405e96:	55                   	push   %ebp
  405e97:	8b ec                	mov    %esp,%ebp
  405e99:	51                   	push   %ecx
  405e9a:	51                   	push   %ecx
  405e9b:	8b 41 44             	mov    0x44(%ecx),%eax
  405e9e:	56                   	push   %esi
  405e9f:	57                   	push   %edi
  405ea0:	8b f8                	mov    %eax,%edi
  405ea2:	85 ff                	test   %edi,%edi
  405ea4:	74 57                	je     0x405efd
  405ea6:	8b 71 18             	mov    0x18(%ecx),%esi
  405ea9:	2b d6                	sub    %esi,%edx
  405eab:	3b d7                	cmp    %edi,%edx
  405ead:	73 06                	jae    0x405eb5
  405eaf:	85 d2                	test   %edx,%edx
  405eb1:	8b fa                	mov    %edx,%edi
  405eb3:	74 48                	je     0x405efd
  405eb5:	83 79 2c 00          	cmpl   $0x0,0x2c(%ecx)
  405eb9:	75 11                	jne    0x405ecc
  405ebb:	8b 51 04             	mov    0x4(%ecx),%edx
  405ebe:	53                   	push   %ebx
  405ebf:	8b da                	mov    %edx,%ebx
  405ec1:	2b 59 28             	sub    0x28(%ecx),%ebx
  405ec4:	3b df                	cmp    %edi,%ebx
  405ec6:	5b                   	pop    %ebx
  405ec7:	77 03                	ja     0x405ecc
  405ec9:	89 51 2c             	mov    %edx,0x2c(%ecx)
  405ecc:	8b 51 30             	mov    0x30(%ecx),%edx
  405ecf:	01 79 28             	add    %edi,0x28(%ecx)
  405ed2:	2b c7                	sub    %edi,%eax
  405ed4:	89 55 fc             	mov    %edx,-0x4(%ebp)
  405ed7:	8b 51 14             	mov    0x14(%ecx),%edx
  405eda:	89 41 44             	mov    %eax,0x44(%ecx)
  405edd:	8b 41 10             	mov    0x10(%ecx),%eax
  405ee0:	89 55 f8             	mov    %edx,-0x8(%ebp)
  405ee3:	3b 75 fc             	cmp    -0x4(%ebp),%esi
  405ee6:	1b d2                	sbb    %edx,%edx
  405ee8:	23 55 f8             	and    -0x8(%ebp),%edx
  405eeb:	2b 55 fc             	sub    -0x4(%ebp),%edx
  405eee:	03 d0                	add    %eax,%edx
  405ef0:	8a 14 32             	mov    (%edx,%esi,1),%dl
  405ef3:	88 14 30             	mov    %dl,(%eax,%esi,1)
  405ef6:	46                   	inc    %esi
  405ef7:	4f                   	dec    %edi
  405ef8:	75 e9                	jne    0x405ee3
  405efa:	89 71 18             	mov    %esi,0x18(%ecx)
  405efd:	5f                   	pop    %edi
  405efe:	5e                   	pop    %esi
  405eff:	c9                   	leave  
  405f00:	c3                   	ret    
  405f01:	56                   	push   %esi
  405f02:	8b f1                	mov    %ecx,%esi
  405f04:	83 7e 2c 00          	cmpl   $0x0,0x2c(%esi)
  405f08:	75 16                	jne    0x405f20
  405f0a:	8b 46 04             	mov    0x4(%esi),%eax
  405f0d:	8b 4e 18             	mov    0x18(%esi),%ecx
  405f10:	2b 46 28             	sub    0x28(%esi),%eax
  405f13:	57                   	push   %edi
  405f14:	8b fa                	mov    %edx,%edi
  405f16:	2b f9                	sub    %ecx,%edi
  405f18:	3b f8                	cmp    %eax,%edi
  405f1a:	5f                   	pop    %edi
  405f1b:	76 03                	jbe    0x405f20
  405f1d:	8d 14 01             	lea    (%ecx,%eax,1),%edx
  405f20:	ff 74 24 08          	push   0x8(%esp)
  405f24:	8b ce                	mov    %esi,%ecx
  405f26:	e8 15 00 00 00       	call   0x405f40
  405f2b:	83 7e 2c 00          	cmpl   $0x0,0x2c(%esi)
  405f2f:	75 0b                	jne    0x405f3c
  405f31:	8b 4e 04             	mov    0x4(%esi),%ecx
  405f34:	39 4e 28             	cmp    %ecx,0x28(%esi)
  405f37:	72 03                	jb     0x405f3c
  405f39:	89 4e 2c             	mov    %ecx,0x2c(%esi)
  405f3c:	5e                   	pop    %esi
  405f3d:	c2 04 00             	ret    $0x4
  405f40:	55                   	push   %ebp
  405f41:	8b ec                	mov    %esp,%ebp
  405f43:	83 ec 60             	sub    $0x60,%esp
  405f46:	8b c1                	mov    %ecx,%eax
  405f48:	53                   	push   %ebx
  405f49:	56                   	push   %esi
  405f4a:	57                   	push   %edi
  405f4b:	8b 48 0c             	mov    0xc(%eax),%ecx
  405f4e:	89 55 ac             	mov    %edx,-0x54(%ebp)
  405f51:	89 4d e4             	mov    %ecx,-0x1c(%ebp)
  405f54:	8b 48 40             	mov    0x40(%eax),%ecx
  405f57:	89 4d f4             	mov    %ecx,-0xc(%ebp)
  405f5a:	8b 48 30             	mov    0x30(%eax),%ecx
  405f5d:	89 4d d8             	mov    %ecx,-0x28(%ebp)
  405f60:	8b 48 34             	mov    0x34(%eax),%ecx
  405f63:	89 4d c8             	mov    %ecx,-0x38(%ebp)
  405f66:	8b 48 38             	mov    0x38(%eax),%ecx
  405f69:	89 4d c4             	mov    %ecx,-0x3c(%ebp)
  405f6c:	8b 48 3c             	mov    0x3c(%eax),%ecx
  405f6f:	6a 01                	push   $0x1
  405f71:	89 4d c0             	mov    %ecx,-0x40(%ebp)
  405f74:	8a 48 02             	mov    0x2(%eax),%cl
  405f77:	5a                   	pop    %edx
  405f78:	0f b6 38             	movzbl (%eax),%edi
  405f7b:	d3 e2                	shl    %cl,%edx
  405f7d:	8a 48 01             	mov    0x1(%eax),%cl
  405f80:	be 00 01 00 00       	mov    $0x100,%esi
  405f85:	8b 58 10             	mov    0x10(%eax),%ebx
  405f88:	89 7d a0             	mov    %edi,-0x60(%ebp)
  405f8b:	89 5d d0             	mov    %ebx,-0x30(%ebp)
  405f8e:	4a                   	dec    %edx
  405f8f:	89 55 a8             	mov    %edx,-0x58(%ebp)
  405f92:	8b d6                	mov    %esi,%edx
  405f94:	d3 e2                	shl    %cl,%edx
  405f96:	8b cf                	mov    %edi,%ecx
  405f98:	bf 00 08 00 00       	mov    $0x800,%edi
  405f9d:	d3 ee                	shr    %cl,%esi
  405f9f:	8b 48 14             	mov    0x14(%eax),%ecx
  405fa2:	89 4d cc             	mov    %ecx,-0x34(%ebp)
  405fa5:	8b 48 18             	mov    0x18(%eax),%ecx
  405fa8:	89 4d f0             	mov    %ecx,-0x10(%ebp)
  405fab:	8b 48 28             	mov    0x28(%eax),%ecx
  405fae:	89 4d dc             	mov    %ecx,-0x24(%ebp)
  405fb1:	8b 48 2c             	mov    0x2c(%eax),%ecx
  405fb4:	89 4d b0             	mov    %ecx,-0x50(%ebp)
  405fb7:	8b 48 1c             	mov    0x1c(%eax),%ecx
  405fba:	89 4d f8             	mov    %ecx,-0x8(%ebp)
  405fbd:	8b 48 24             	mov    0x24(%eax),%ecx
  405fc0:	2b d6                	sub    %esi,%edx
  405fc2:	83 65 ec 00          	andl   $0x0,-0x14(%ebp)
  405fc6:	8b 70 20             	mov    0x20(%eax),%esi
  405fc9:	89 55 a4             	mov    %edx,-0x5c(%ebp)
  405fcc:	89 4d fc             	mov    %ecx,-0x4(%ebp)
  405fcf:	8b 4d dc             	mov    -0x24(%ebp),%ecx
  405fd2:	8b 55 f4             	mov    -0xc(%ebp),%edx
  405fd5:	23 4d a8             	and    -0x58(%ebp),%ecx
  405fd8:	c1 e1 04             	shl    $0x4,%ecx
  405fdb:	89 4d b4             	mov    %ecx,-0x4c(%ebp)
  405fde:	03 ca                	add    %edx,%ecx
  405fe0:	8b 55 e4             	mov    -0x1c(%ebp),%edx
  405fe3:	89 4d b8             	mov    %ecx,-0x48(%ebp)
  405fe6:	81 fe 00 00 00 01    	cmp    $0x1000000,%esi
  405fec:	8d 8c 4a 00 fe ff ff 	lea    -0x200(%edx,%ecx,2),%ecx
  405ff3:	89 4d e0             	mov    %ecx,-0x20(%ebp)
  405ff6:	0f b7 09             	movzwl (%ecx),%ecx
  405ff9:	73 1a                	jae    0x406015
  405ffb:	8b 5d f8             	mov    -0x8(%ebp),%ebx
  405ffe:	8b 55 fc             	mov    -0x4(%ebp),%edx
  406001:	c1 e2 08             	shl    $0x8,%edx
  406004:	0f b6 1b             	movzbl (%ebx),%ebx
  406007:	0b d3                	or     %ebx,%edx
  406009:	8b 5d d0             	mov    -0x30(%ebp),%ebx
  40600c:	c1 e6 08             	shl    $0x8,%esi
  40600f:	ff 45 f8             	incl   -0x8(%ebp)
  406012:	89 55 fc             	mov    %edx,-0x4(%ebp)
  406015:	8b d6                	mov    %esi,%edx
  406017:	c1 ea 0b             	shr    $0xb,%edx
  40601a:	0f af d1             	imul   %ecx,%edx
  40601d:	39 55 fc             	cmp    %edx,-0x4(%ebp)
  406020:	0f 83 cb 01 00 00    	jae    0x4061f1
  406026:	8b f2                	mov    %edx,%esi
  406028:	8b d7                	mov    %edi,%edx
  40602a:	2b d1                	sub    %ecx,%edx
  40602c:	c1 ea 05             	shr    $0x5,%edx
  40602f:	03 d1                	add    %ecx,%edx
  406031:	8b 4d e0             	mov    -0x20(%ebp),%ecx
  406034:	66 89 11             	mov    %dx,(%ecx)
  406037:	8b 4d e4             	mov    -0x1c(%ebp),%ecx
  40603a:	81 c1 80 02 00 00    	add    $0x280,%ecx
  406040:	83 7d dc 00          	cmpl   $0x0,-0x24(%ebp)
  406044:	89 4d e0             	mov    %ecx,-0x20(%ebp)
  406047:	75 06                	jne    0x40604f
  406049:	83 7d b0 00          	cmpl   $0x0,-0x50(%ebp)
  40604d:	74 2b                	je     0x40607a
  40604f:	8b 4d f0             	mov    -0x10(%ebp),%ecx
  406052:	85 c9                	test   %ecx,%ecx
  406054:	75 03                	jne    0x406059
  406056:	8b 4d cc             	mov    -0x34(%ebp),%ecx
  406059:	0f b6 54 19 ff       	movzbl -0x1(%ecx,%ebx,1),%edx
  40605e:	8b 4d dc             	mov    -0x24(%ebp),%ecx
  406061:	c1 e1 08             	shl    $0x8,%ecx
  406064:	03 d1                	add    %ecx,%edx
  406066:	8b 4d a0             	mov    -0x60(%ebp),%ecx
  406069:	23 55 a4             	and    -0x5c(%ebp),%edx
  40606c:	d3 e2                	shl    %cl,%edx
  40606e:	8d 0c 52             	lea    (%edx,%edx,2),%ecx
  406071:	8b 55 e0             	mov    -0x20(%ebp),%edx
  406074:	8d 0c 4a             	lea    (%edx,%ecx,2),%ecx
  406077:	89 4d e0             	mov    %ecx,-0x20(%ebp)
  40607a:	ff 45 dc             	incl   -0x24(%ebp)
  40607d:	83 7d f4 07          	cmpl   $0x7,-0xc(%ebp)
  406081:	0f 83 92 00 00 00    	jae    0x406119
  406087:	83 7d f4 04          	cmpl   $0x4,-0xc(%ebp)
  40608b:	73 05                	jae    0x406092
  40608d:	8b 4d f4             	mov    -0xc(%ebp),%ecx
  406090:	eb 03                	jmp    0x406095
  406092:	6a 03                	push   $0x3
  406094:	59                   	pop    %ecx
  406095:	29 4d f4             	sub    %ecx,-0xc(%ebp)
  406098:	6a 01                	push   $0x1
  40609a:	59                   	pop    %ecx
  40609b:	8b 55 e0             	mov    -0x20(%ebp),%edx
  40609e:	03 c9                	add    %ecx,%ecx
  4060a0:	89 4d bc             	mov    %ecx,-0x44(%ebp)
  4060a3:	03 ca                	add    %edx,%ecx
  4060a5:	89 4d d4             	mov    %ecx,-0x2c(%ebp)
  4060a8:	81 fe 00 00 00 01    	cmp    $0x1000000,%esi
  4060ae:	0f b7 09             	movzwl (%ecx),%ecx
  4060b1:	89 4d e8             	mov    %ecx,-0x18(%ebp)
  4060b4:	73 17                	jae    0x4060cd
  4060b6:	8b 55 f8             	mov    -0x8(%ebp),%edx
  4060b9:	8b 4d fc             	mov    -0x4(%ebp),%ecx
  4060bc:	c1 e1 08             	shl    $0x8,%ecx
  4060bf:	0f b6 12             	movzbl (%edx),%edx
  4060c2:	0b ca                	or     %edx,%ecx
  4060c4:	c1 e6 08             	shl    $0x8,%esi
  4060c7:	ff 45 f8             	incl   -0x8(%ebp)
  4060ca:	89 4d fc             	mov    %ecx,-0x4(%ebp)
  4060cd:	8b ce                	mov    %esi,%ecx
  4060cf:	c1 e9 0b             	shr    $0xb,%ecx
  4060d2:	0f af 4d e8          	imul   -0x18(%ebp),%ecx
  4060d6:	39 4d fc             	cmp    %ecx,-0x4(%ebp)
  4060d9:	73 18                	jae    0x4060f3
  4060db:	8b f1                	mov    %ecx,%esi
  4060dd:	8b 55 d4             	mov    -0x2c(%ebp),%edx
  4060e0:	8b cf                	mov    %edi,%ecx
  4060e2:	2b 4d e8             	sub    -0x18(%ebp),%ecx
  4060e5:	c1 e9 05             	shr    $0x5,%ecx
  4060e8:	03 4d e8             	add    -0x18(%ebp),%ecx
  4060eb:	66 89 0a             	mov    %cx,(%edx)
  4060ee:	8b 4d bc             	mov    -0x44(%ebp),%ecx
  4060f1:	eb 19                	jmp    0x40610c
  4060f3:	29 4d fc             	sub    %ecx,-0x4(%ebp)
  4060f6:	2b f1                	sub    %ecx,%esi
  4060f8:	8b 4d e8             	mov    -0x18(%ebp),%ecx
  4060fb:	8b d1                	mov    %ecx,%edx
  4060fd:	c1 ea 05             	shr    $0x5,%edx
  406100:	2b ca                	sub    %edx,%ecx
  406102:	8b 55 d4             	mov    -0x2c(%ebp),%edx
  406105:	66 89 0a             	mov    %cx,(%edx)
  406108:	8b 4d bc             	mov    -0x44(%ebp),%ecx
  40610b:	41                   	inc    %ecx
  40610c:	81 f9 00 01 00 00    	cmp    $0x100,%ecx
  406112:	72 87                	jb     0x40609b
  406114:	e9 ca 00 00 00       	jmp    0x4061e3
  406119:	8b 4d f0             	mov    -0x10(%ebp),%ecx
  40611c:	6a 01                	push   $0x1
  40611e:	3b 4d d8             	cmp    -0x28(%ebp),%ecx
  406121:	ba 00 01 00 00       	mov    $0x100,%edx
  406126:	1b c9                	sbb    %ecx,%ecx
  406128:	23 4d cc             	and    -0x34(%ebp),%ecx
  40612b:	2b 4d d8             	sub    -0x28(%ebp),%ecx
  40612e:	03 4d f0             	add    -0x10(%ebp),%ecx
  406131:	83 7d f4 0a          	cmpl   $0xa,-0xc(%ebp)
  406135:	0f b6 0c 19          	movzbl (%ecx,%ebx,1),%ecx
  406139:	89 4d d4             	mov    %ecx,-0x2c(%ebp)
  40613c:	1b c9                	sbb    %ecx,%ecx
  40613e:	83 e1 fd             	and    $0xfffffffd,%ecx
  406141:	83 c1 06             	add    $0x6,%ecx
  406144:	29 4d f4             	sub    %ecx,-0xc(%ebp)
  406147:	59                   	pop    %ecx
  406148:	8b 5d d4             	mov    -0x2c(%ebp),%ebx
  40614b:	89 55 bc             	mov    %edx,-0x44(%ebp)
  40614e:	03 db                	add    %ebx,%ebx
  406150:	89 5d d4             	mov    %ebx,-0x2c(%ebp)
  406153:	23 d3                	and    %ebx,%edx
  406155:	8b 5d bc             	mov    -0x44(%ebp),%ebx
  406158:	89 55 b4             	mov    %edx,-0x4c(%ebp)
  40615b:	03 da                	add    %edx,%ebx
  40615d:	8b 55 e0             	mov    -0x20(%ebp),%edx
  406160:	03 d9                	add    %ecx,%ebx
  406162:	81 fe 00 00 00 01    	cmp    $0x1000000,%esi
  406168:	8d 14 5a             	lea    (%edx,%ebx,2),%edx
  40616b:	89 55 b8             	mov    %edx,-0x48(%ebp)
  40616e:	0f b7 12             	movzwl (%edx),%edx
  406171:	89 55 e8             	mov    %edx,-0x18(%ebp)
  406174:	73 17                	jae    0x40618d
  406176:	8b 5d f8             	mov    -0x8(%ebp),%ebx
  406179:	8b 55 fc             	mov    -0x4(%ebp),%edx
  40617c:	c1 e2 08             	shl    $0x8,%edx
  40617f:	0f b6 1b             	movzbl (%ebx),%ebx
  406182:	0b d3                	or     %ebx,%edx
  406184:	c1 e6 08             	shl    $0x8,%esi
  406187:	ff 45 f8             	incl   -0x8(%ebp)
  40618a:	89 55 fc             	mov    %edx,-0x4(%ebp)
  40618d:	8b d6                	mov    %esi,%edx
  40618f:	c1 ea 0b             	shr    $0xb,%edx
  406192:	0f af 55 e8          	imul   -0x18(%ebp),%edx
  406196:	39 55 fc             	cmp    %edx,-0x4(%ebp)
  406199:	73 1d                	jae    0x4061b8
  40619b:	8b f2                	mov    %edx,%esi
  40619d:	8b 5d b8             	mov    -0x48(%ebp),%ebx
  4061a0:	8b d7                	mov    %edi,%edx
  4061a2:	03 c9                	add    %ecx,%ecx
  4061a4:	2b 55 e8             	sub    -0x18(%ebp),%edx
  4061a7:	c1 ea 05             	shr    $0x5,%edx
  4061aa:	03 55 e8             	add    -0x18(%ebp),%edx
  4061ad:	66 89 13             	mov    %dx,(%ebx)
  4061b0:	8b 55 b4             	mov    -0x4c(%ebp),%edx
  4061b3:	33 55 bc             	xor    -0x44(%ebp),%edx
  4061b6:	eb 1c                	jmp    0x4061d4
  4061b8:	29 55 fc             	sub    %edx,-0x4(%ebp)
  4061bb:	2b f2                	sub    %edx,%esi
  4061bd:	8b 55 e8             	mov    -0x18(%ebp),%edx
  4061c0:	8d 4c 09 01          	lea    0x1(%ecx,%ecx,1),%ecx
  4061c4:	8b da                	mov    %edx,%ebx
  4061c6:	c1 eb 05             	shr    $0x5,%ebx
  4061c9:	2b d3                	sub    %ebx,%edx
  4061cb:	8b 5d b8             	mov    -0x48(%ebp),%ebx
  4061ce:	66 89 13             	mov    %dx,(%ebx)
  4061d1:	8b 55 b4             	mov    -0x4c(%ebp),%edx
  4061d4:	81 f9 00 01 00 00    	cmp    $0x100,%ecx
  4061da:	0f 82 68 ff ff ff    	jb     0x406148
  4061e0:	8b 5d d0             	mov    -0x30(%ebp),%ebx
  4061e3:	8b 55 f0             	mov    -0x10(%ebp),%edx
  4061e6:	ff 45 f0             	incl   -0x10(%ebp)
  4061e9:	88 0c 1a             	mov    %cl,(%edx,%ebx,1)
  4061ec:	e9 fd 07 00 00       	jmp    0x4069ee
  4061f1:	29 55 fc             	sub    %edx,-0x4(%ebp)
  4061f4:	2b f2                	sub    %edx,%esi
  4061f6:	8b d1                	mov    %ecx,%edx
  4061f8:	c1 ea 05             	shr    $0x5,%edx
  4061fb:	2b ca                	sub    %edx,%ecx
  4061fd:	8b 55 e0             	mov    -0x20(%ebp),%edx
  406200:	81 fe 00 00 00 01    	cmp    $0x1000000,%esi
  406206:	66 89 0a             	mov    %cx,(%edx)
  406209:	8b 4d f4             	mov    -0xc(%ebp),%ecx
  40620c:	8b 55 e4             	mov    -0x1c(%ebp),%edx
  40620f:	8d 5c 4a 20          	lea    0x20(%edx,%ecx,2),%ebx
  406213:	89 5d e0             	mov    %ebx,-0x20(%ebp)
  406216:	0f b7 0b             	movzwl (%ebx),%ecx
  406219:	73 1a                	jae    0x406235
  40621b:	8b 5d f8             	mov    -0x8(%ebp),%ebx
  40621e:	8b 55 fc             	mov    -0x4(%ebp),%edx
  406221:	c1 e2 08             	shl    $0x8,%edx
  406224:	0f b6 1b             	movzbl (%ebx),%ebx
  406227:	0b d3                	or     %ebx,%edx
  406229:	8b 5d e0             	mov    -0x20(%ebp),%ebx
  40622c:	c1 e6 08             	shl    $0x8,%esi
  40622f:	ff 45 f8             	incl   -0x8(%ebp)
  406232:	89 55 fc             	mov    %edx,-0x4(%ebp)
  406235:	8b d6                	mov    %esi,%edx
  406237:	c1 ea 0b             	shr    $0xb,%edx
  40623a:	0f af d1             	imul   %ecx,%edx
  40623d:	39 55 fc             	cmp    %edx,-0x4(%ebp)
  406240:	73 20                	jae    0x406262
  406242:	8b f2                	mov    %edx,%esi
  406244:	8b d7                	mov    %edi,%edx
  406246:	83 45 f4 0c          	addl   $0xc,-0xc(%ebp)
  40624a:	2b d1                	sub    %ecx,%edx
  40624c:	c1 ea 05             	shr    $0x5,%edx
  40624f:	03 d1                	add    %ecx,%edx
  406251:	8b 4d e4             	mov    -0x1c(%ebp),%ecx
  406254:	66 89 13             	mov    %dx,(%ebx)
  406257:	81 c1 00 fa ff ff    	add    $0xfffffa00,%ecx
  40625d:	e9 08 02 00 00       	jmp    0x40646a
  406262:	29 55 fc             	sub    %edx,-0x4(%ebp)
  406265:	2b f2                	sub    %edx,%esi
  406267:	8b d1                	mov    %ecx,%edx
  406269:	c1 ea 05             	shr    $0x5,%edx
  40626c:	2b ca                	sub    %edx,%ecx
  40626e:	8b 55 e4             	mov    -0x1c(%ebp),%edx
  406271:	66 89 0b             	mov    %cx,(%ebx)
  406274:	8b 4d f4             	mov    -0xc(%ebp),%ecx
  406277:	81 fe 00 00 00 01    	cmp    $0x1000000,%esi
  40627d:	8d 54 4a 38          	lea    0x38(%edx,%ecx,2),%edx
  406281:	0f b7 0a             	movzwl (%edx),%ecx
  406284:	73 17                	jae    0x40629d
  406286:	8b 5d f8             	mov    -0x8(%ebp),%ebx
  406289:	8b 7d fc             	mov    -0x4(%ebp),%edi
  40628c:	c1 e7 08             	shl    $0x8,%edi
  40628f:	0f b6 1b             	movzbl (%ebx),%ebx
  406292:	0b fb                	or     %ebx,%edi
  406294:	c1 e6 08             	shl    $0x8,%esi
  406297:	ff 45 f8             	incl   -0x8(%ebp)
  40629a:	89 7d fc             	mov    %edi,-0x4(%ebp)
  40629d:	8b fe                	mov    %esi,%edi
  40629f:	c1 ef 0b             	shr    $0xb,%edi
  4062a2:	0f af f9             	imul   %ecx,%edi
  4062a5:	39 7d fc             	cmp    %edi,-0x4(%ebp)
  4062a8:	89 7d bc             	mov    %edi,-0x44(%ebp)
  4062ab:	0f 83 b2 00 00 00    	jae    0x406363
  4062b1:	8b f7                	mov    %edi,%esi
  4062b3:	bf 00 08 00 00       	mov    $0x800,%edi
  4062b8:	8b df                	mov    %edi,%ebx
  4062ba:	2b d9                	sub    %ecx,%ebx
  4062bc:	c1 eb 05             	shr    $0x5,%ebx
  4062bf:	03 d9                	add    %ecx,%ebx
  4062c1:	8b 4d b8             	mov    -0x48(%ebp),%ecx
  4062c4:	66 89 1a             	mov    %bx,(%edx)
  4062c7:	8b 55 e4             	mov    -0x1c(%ebp),%edx
  4062ca:	8d 8c 4a 00 f4 ff ff 	lea    -0xc00(%edx,%ecx,2),%ecx
  4062d1:	0f b7 11             	movzwl (%ecx),%edx
  4062d4:	89 55 e8             	mov    %edx,-0x18(%ebp)
  4062d7:	8b d6                	mov    %esi,%edx
  4062d9:	81 fa 00 00 00 01    	cmp    $0x1000000,%edx
  4062df:	73 19                	jae    0x4062fa
  4062e1:	8b 5d f8             	mov    -0x8(%ebp),%ebx
  4062e4:	c1 e2 08             	shl    $0x8,%edx
  4062e7:	0f b6 1b             	movzbl (%ebx),%ebx
  4062ea:	8b f2                	mov    %edx,%esi
  4062ec:	8b 55 fc             	mov    -0x4(%ebp),%edx
  4062ef:	c1 e2 08             	shl    $0x8,%edx
  4062f2:	0b d3                	or     %ebx,%edx
  4062f4:	ff 45 f8             	incl   -0x8(%ebp)
  4062f7:	89 55 fc             	mov    %edx,-0x4(%ebp)
  4062fa:	8b d6                	mov    %esi,%edx
  4062fc:	c1 ea 0b             	shr    $0xb,%edx
  4062ff:	0f af 55 e8          	imul   -0x18(%ebp),%edx
  406303:	39 55 fc             	cmp    %edx,-0x4(%ebp)
  406306:	73 44                	jae    0x40634c
  406308:	8b f2                	mov    %edx,%esi
  40630a:	8b d7                	mov    %edi,%edx
  40630c:	2b 55 e8             	sub    -0x18(%ebp),%edx
  40630f:	8b 5d d0             	mov    -0x30(%ebp),%ebx
  406312:	c1 ea 05             	shr    $0x5,%edx
  406315:	03 55 e8             	add    -0x18(%ebp),%edx
  406318:	66 89 11             	mov    %dx,(%ecx)
  40631b:	8b 4d f0             	mov    -0x10(%ebp),%ecx
  40631e:	3b 4d d8             	cmp    -0x28(%ebp),%ecx
  406321:	1b d2                	sbb    %edx,%edx
  406323:	23 55 cc             	and    -0x34(%ebp),%edx
  406326:	2b 55 d8             	sub    -0x28(%ebp),%edx
  406329:	03 d1                	add    %ecx,%edx
  40632b:	8a 14 1a             	mov    (%edx,%ebx,1),%dl
  40632e:	88 14 19             	mov    %dl,(%ecx,%ebx,1)
  406331:	41                   	inc    %ecx
  406332:	ff 45 dc             	incl   -0x24(%ebp)
  406335:	83 7d f4 07          	cmpl   $0x7,-0xc(%ebp)
  406339:	89 4d f0             	mov    %ecx,-0x10(%ebp)
  40633c:	1b c9                	sbb    %ecx,%ecx
  40633e:	83 e1 fe             	and    $0xfffffffe,%ecx
  406341:	83 c1 0b             	add    $0xb,%ecx
  406344:	89 4d f4             	mov    %ecx,-0xc(%ebp)
  406347:	e9 a2 06 00 00       	jmp    0x4069ee
  40634c:	29 55 fc             	sub    %edx,-0x4(%ebp)
  40634f:	2b f2                	sub    %edx,%esi
  406351:	8b 55 e8             	mov    -0x18(%ebp),%edx
  406354:	8b da                	mov    %edx,%ebx
  406356:	c1 eb 05             	shr    $0x5,%ebx
  406359:	2b d3                	sub    %ebx,%edx
  40635b:	66 89 11             	mov    %dx,(%ecx)
  40635e:	e9 ef 00 00 00       	jmp    0x406452
  406363:	29 7d fc             	sub    %edi,-0x4(%ebp)
  406366:	2b f7                	sub    %edi,%esi
  406368:	8b f9                	mov    %ecx,%edi
  40636a:	c1 ef 05             	shr    $0x5,%edi
  40636d:	2b cf                	sub    %edi,%ecx
  40636f:	81 fe 00 00 00 01    	cmp    $0x1000000,%esi
  406375:	66 89 0a             	mov    %cx,(%edx)
  406378:	8b 4d f4             	mov    -0xc(%ebp),%ecx
  40637b:	8b 55 e4             	mov    -0x1c(%ebp),%edx
  40637e:	8d 54 4a 50          	lea    0x50(%edx,%ecx,2),%edx
  406382:	0f b7 0a             	movzwl (%edx),%ecx
  406385:	73 17                	jae    0x40639e
  406387:	8b 5d f8             	mov    -0x8(%ebp),%ebx
  40638a:	8b 7d fc             	mov    -0x4(%ebp),%edi
  40638d:	c1 e7 08             	shl    $0x8,%edi
  406390:	0f b6 1b             	movzbl (%ebx),%ebx
  406393:	0b fb                	or     %ebx,%edi
  406395:	c1 e6 08             	shl    $0x8,%esi
  406398:	ff 45 f8             	incl   -0x8(%ebp)
  40639b:	89 7d fc             	mov    %edi,-0x4(%ebp)
  40639e:	8b fe                	mov    %esi,%edi
  4063a0:	c1 ef 0b             	shr    $0xb,%edi
  4063a3:	0f af f9             	imul   %ecx,%edi
  4063a6:	39 7d fc             	cmp    %edi,-0x4(%ebp)
  4063a9:	73 1b                	jae    0x4063c6
  4063ab:	8b f7                	mov    %edi,%esi
  4063ad:	bf 00 08 00 00       	mov    $0x800,%edi
  4063b2:	8b df                	mov    %edi,%ebx
  4063b4:	2b d9                	sub    %ecx,%ebx
  4063b6:	c1 eb 05             	shr    $0x5,%ebx
  4063b9:	03 d9                	add    %ecx,%ebx
  4063bb:	8b 4d c8             	mov    -0x38(%ebp),%ecx
  4063be:	66 89 1a             	mov    %bx,(%edx)
  4063c1:	e9 83 00 00 00       	jmp    0x406449
  4063c6:	29 7d fc             	sub    %edi,-0x4(%ebp)
  4063c9:	2b f7                	sub    %edi,%esi
  4063cb:	8b f9                	mov    %ecx,%edi
  4063cd:	c1 ef 05             	shr    $0x5,%edi
  4063d0:	2b cf                	sub    %edi,%ecx
  4063d2:	81 fe 00 00 00 01    	cmp    $0x1000000,%esi
  4063d8:	66 89 0a             	mov    %cx,(%edx)
  4063db:	8b 4d f4             	mov    -0xc(%ebp),%ecx
  4063de:	8b 55 e4             	mov    -0x1c(%ebp),%edx
  4063e1:	8d 54 4a 68          	lea    0x68(%edx,%ecx,2),%edx
  4063e5:	0f b7 0a             	movzwl (%edx),%ecx
  4063e8:	73 17                	jae    0x406401
  4063ea:	8b 5d f8             	mov    -0x8(%ebp),%ebx
  4063ed:	8b 7d fc             	mov    -0x4(%ebp),%edi
  4063f0:	c1 e7 08             	shl    $0x8,%edi
  4063f3:	0f b6 1b             	movzbl (%ebx),%ebx
  4063f6:	0b fb                	or     %ebx,%edi
  4063f8:	c1 e6 08             	shl    $0x8,%esi
  4063fb:	ff 45 f8             	incl   -0x8(%ebp)
  4063fe:	89 7d fc             	mov    %edi,-0x4(%ebp)
  406401:	8b fe                	mov    %esi,%edi
  406403:	c1 ef 0b             	shr    $0xb,%edi
  406406:	0f af f9             	imul   %ecx,%edi
  406409:	39 7d fc             	cmp    %edi,-0x4(%ebp)
  40640c:	73 18                	jae    0x406426
  40640e:	8b f7                	mov    %edi,%esi
  406410:	bf 00 08 00 00       	mov    $0x800,%edi
  406415:	8b df                	mov    %edi,%ebx
  406417:	2b d9                	sub    %ecx,%ebx
  406419:	c1 eb 05             	shr    $0x5,%ebx
  40641c:	03 d9                	add    %ecx,%ebx
  40641e:	8b 4d c4             	mov    -0x3c(%ebp),%ecx
  406421:	66 89 1a             	mov    %bx,(%edx)
  406424:	eb 1d                	jmp    0x406443
  406426:	29 7d fc             	sub    %edi,-0x4(%ebp)
  406429:	2b f7                	sub    %edi,%esi
  40642b:	8b f9                	mov    %ecx,%edi
  40642d:	c1 ef 05             	shr    $0x5,%edi
  406430:	2b cf                	sub    %edi,%ecx
  406432:	bf 00 08 00 00       	mov    $0x800,%edi
  406437:	66 89 0a             	mov    %cx,(%edx)
  40643a:	8b 55 c4             	mov    -0x3c(%ebp),%edx
  40643d:	8b 4d c0             	mov    -0x40(%ebp),%ecx
  406440:	89 55 c0             	mov    %edx,-0x40(%ebp)
  406443:	8b 55 c8             	mov    -0x38(%ebp),%edx
  406446:	89 55 c4             	mov    %edx,-0x3c(%ebp)
  406449:	8b 55 d8             	mov    -0x28(%ebp),%edx
  40644c:	89 4d d8             	mov    %ecx,-0x28(%ebp)
  40644f:	89 55 c8             	mov    %edx,-0x38(%ebp)
  406452:	83 7d f4 07          	cmpl   $0x7,-0xc(%ebp)
  406456:	1b c9                	sbb    %ecx,%ecx
  406458:	83 e1 fd             	and    $0xfffffffd,%ecx
  40645b:	83 c1 0b             	add    $0xb,%ecx
  40645e:	89 4d f4             	mov    %ecx,-0xc(%ebp)
  406461:	8b 4d e4             	mov    -0x1c(%ebp),%ecx
  406464:	81 c1 00 f6 ff ff    	add    $0xfffff600,%ecx
  40646a:	0f b7 11             	movzwl (%ecx),%edx
  40646d:	81 fe 00 00 00 01    	cmp    $0x1000000,%esi
  406473:	89 55 e8             	mov    %edx,-0x18(%ebp)
  406476:	73 1a                	jae    0x406492
  406478:	8b 5d f8             	mov    -0x8(%ebp),%ebx
  40647b:	8b 55 fc             	mov    -0x4(%ebp),%edx
  40647e:	c1 e2 08             	shl    $0x8,%edx
  406481:	0f b6 1b             	movzbl (%ebx),%ebx
  406484:	0b d3                	or     %ebx,%edx
  406486:	c1 e6 08             	shl    $0x8,%esi
  406489:	ff 45 f8             	incl   -0x8(%ebp)
  40648c:	89 55 fc             	mov    %edx,-0x4(%ebp)
  40648f:	8b 55 e8             	mov    -0x18(%ebp),%edx
  406492:	8b de                	mov    %esi,%ebx
  406494:	c1 eb 0b             	shr    $0xb,%ebx
  406497:	0f af da             	imul   %edx,%ebx
  40649a:	39 5d fc             	cmp    %ebx,-0x4(%ebp)
  40649d:	73 27                	jae    0x4064c6
  40649f:	8b f3                	mov    %ebx,%esi
  4064a1:	8b df                	mov    %edi,%ebx
  4064a3:	2b da                	sub    %edx,%ebx
  4064a5:	c7 45 e8 08 00 00 00 	movl   $0x8,-0x18(%ebp)
  4064ac:	c1 eb 05             	shr    $0x5,%ebx
  4064af:	03 da                	add    %edx,%ebx
  4064b1:	8b 55 b4             	mov    -0x4c(%ebp),%edx
  4064b4:	83 65 d4 00          	andl   $0x0,-0x2c(%ebp)
  4064b8:	66 89 19             	mov    %bx,(%ecx)
  4064bb:	8d 0c 51             	lea    (%ecx,%edx,2),%ecx
  4064be:	89 4d e0             	mov    %ecx,-0x20(%ebp)
  4064c1:	e9 94 00 00 00       	jmp    0x40655a
  4064c6:	29 5d fc             	sub    %ebx,-0x4(%ebp)
  4064c9:	8b fa                	mov    %edx,%edi
  4064cb:	c1 ef 05             	shr    $0x5,%edi
  4064ce:	2b f3                	sub    %ebx,%esi
  4064d0:	2b d7                	sub    %edi,%edx
  4064d2:	66 89 11             	mov    %dx,(%ecx)
  4064d5:	81 fe 00 00 00 01    	cmp    $0x1000000,%esi
  4064db:	0f b7 51 10          	movzwl 0x10(%ecx),%edx
  4064df:	73 17                	jae    0x4064f8
  4064e1:	8b 5d f8             	mov    -0x8(%ebp),%ebx
  4064e4:	8b 7d fc             	mov    -0x4(%ebp),%edi
  4064e7:	c1 e7 08             	shl    $0x8,%edi
  4064ea:	0f b6 1b             	movzbl (%ebx),%ebx
  4064ed:	0b fb                	or     %ebx,%edi
  4064ef:	c1 e6 08             	shl    $0x8,%esi
  4064f2:	ff 45 f8             	incl   -0x8(%ebp)
  4064f5:	89 7d fc             	mov    %edi,-0x4(%ebp)
  4064f8:	8b fe                	mov    %esi,%edi
  4064fa:	c1 ef 0b             	shr    $0xb,%edi
  4064fd:	0f af fa             	imul   %edx,%edi
  406500:	39 7d fc             	cmp    %edi,-0x4(%ebp)
  406503:	73 29                	jae    0x40652e
  406505:	8b f7                	mov    %edi,%esi
  406507:	bf 00 08 00 00       	mov    $0x800,%edi
  40650c:	8b df                	mov    %edi,%ebx
  40650e:	6a 08                	push   $0x8
  406510:	2b da                	sub    %edx,%ebx
  406512:	c1 eb 05             	shr    $0x5,%ebx
  406515:	03 da                	add    %edx,%ebx
  406517:	8b 55 b4             	mov    -0x4c(%ebp),%edx
  40651a:	66 89 59 10          	mov    %bx,0x10(%ecx)
  40651e:	8d 4c 51 10          	lea    0x10(%ecx,%edx,2),%ecx
  406522:	89 4d e0             	mov    %ecx,-0x20(%ebp)
  406525:	59                   	pop    %ecx
  406526:	89 4d d4             	mov    %ecx,-0x2c(%ebp)
  406529:	89 4d e8             	mov    %ecx,-0x18(%ebp)
  40652c:	eb 2c                	jmp    0x40655a
  40652e:	29 7d fc             	sub    %edi,-0x4(%ebp)
  406531:	2b f7                	sub    %edi,%esi
  406533:	8b fa                	mov    %edx,%edi
  406535:	c7 45 d4 10 00 00 00 	movl   $0x10,-0x2c(%ebp)
  40653c:	c1 ef 05             	shr    $0x5,%edi
  40653f:	2b d7                	sub    %edi,%edx
  406541:	c7 45 e8 00 01 00 00 	movl   $0x100,-0x18(%ebp)
  406548:	66 89 51 10          	mov    %dx,0x10(%ecx)
  40654c:	81 c1 00 02 00 00    	add    $0x200,%ecx
  406552:	89 4d e0             	mov    %ecx,-0x20(%ebp)
  406555:	bf 00 08 00 00       	mov    $0x800,%edi
  40655a:	6a 01                	push   $0x1
  40655c:	59                   	pop    %ecx
  40655d:	eb 03                	jmp    0x406562
  40655f:	8b 4d ec             	mov    -0x14(%ebp),%ecx
  406562:	8b 55 e0             	mov    -0x20(%ebp),%edx
  406565:	03 c9                	add    %ecx,%ecx
  406567:	89 4d b8             	mov    %ecx,-0x48(%ebp)
  40656a:	03 ca                	add    %edx,%ecx
  40656c:	81 fe 00 00 00 01    	cmp    $0x1000000,%esi
  406572:	89 4d b4             	mov    %ecx,-0x4c(%ebp)
  406575:	0f b7 11             	movzwl (%ecx),%edx
  406578:	73 1a                	jae    0x406594
  40657a:	8b 5d f8             	mov    -0x8(%ebp),%ebx
  40657d:	8b 4d fc             	mov    -0x4(%ebp),%ecx
  406580:	c1 e1 08             	shl    $0x8,%ecx
  406583:	0f b6 1b             	movzbl (%ebx),%ebx
  406586:	0b cb                	or     %ebx,%ecx
  406588:	c1 e6 08             	shl    $0x8,%esi
  40658b:	ff 45 f8             	incl   -0x8(%ebp)
  40658e:	89 4d fc             	mov    %ecx,-0x4(%ebp)
  406591:	8b 4d b4             	mov    -0x4c(%ebp),%ecx
  406594:	8b de                	mov    %esi,%ebx
  406596:	c1 eb 0b             	shr    $0xb,%ebx
  406599:	0f af da             	imul   %edx,%ebx
  40659c:	39 5d fc             	cmp    %ebx,-0x4(%ebp)
  40659f:	73 13                	jae    0x4065b4
  4065a1:	8b f3                	mov    %ebx,%esi
  4065a3:	8b df                	mov    %edi,%ebx
  4065a5:	2b da                	sub    %edx,%ebx
  4065a7:	c1 eb 05             	shr    $0x5,%ebx
  4065aa:	03 da                	add    %edx,%ebx
  4065ac:	66 89 19             	mov    %bx,(%ecx)
  4065af:	8b 4d b8             	mov    -0x48(%ebp),%ecx
  4065b2:	eb 16                	jmp    0x4065ca
  4065b4:	8b ca                	mov    %edx,%ecx
  4065b6:	29 5d fc             	sub    %ebx,-0x4(%ebp)
  4065b9:	c1 e9 05             	shr    $0x5,%ecx
  4065bc:	2b d1                	sub    %ecx,%edx
  4065be:	8b 4d b4             	mov    -0x4c(%ebp),%ecx
  4065c1:	2b f3                	sub    %ebx,%esi
  4065c3:	66 89 11             	mov    %dx,(%ecx)
  4065c6:	8b 4d b8             	mov    -0x48(%ebp),%ecx
  4065c9:	41                   	inc    %ecx
  4065ca:	8b 55 e8             	mov    -0x18(%ebp),%edx
  4065cd:	89 4d ec             	mov    %ecx,-0x14(%ebp)
  4065d0:	39 55 ec             	cmp    %edx,-0x14(%ebp)
  4065d3:	8b 4d d4             	mov    -0x2c(%ebp),%ecx
  4065d6:	72 87                	jb     0x40655f
  4065d8:	2b ca                	sub    %edx,%ecx
  4065da:	01 4d ec             	add    %ecx,-0x14(%ebp)
  4065dd:	83 7d f4 0c          	cmpl   $0xc,-0xc(%ebp)
  4065e1:	0f 82 7d 03 00 00    	jb     0x406964
  4065e7:	83 7d ec 04          	cmpl   $0x4,-0x14(%ebp)
  4065eb:	73 05                	jae    0x4065f2
  4065ed:	8b 4d ec             	mov    -0x14(%ebp),%ecx
  4065f0:	eb 03                	jmp    0x4065f5
  4065f2:	6a 03                	push   $0x3
  4065f4:	59                   	pop    %ecx
  4065f5:	8d 59 01             	lea    0x1(%ecx),%ebx
  4065f8:	6a 01                	push   $0x1
  4065fa:	c1 e3 07             	shl    $0x7,%ebx
  4065fd:	03 5d e4             	add    -0x1c(%ebp),%ebx
  406600:	59                   	pop    %ecx
  406601:	89 5d e0             	mov    %ebx,-0x20(%ebp)
  406604:	03 c9                	add    %ecx,%ecx
  406606:	81 fe 00 00 00 01    	cmp    $0x1000000,%esi
  40660c:	89 4d b4             	mov    %ecx,-0x4c(%ebp)
  40660f:	8d 14 19             	lea    (%ecx,%ebx,1),%edx
  406612:	89 55 e8             	mov    %edx,-0x18(%ebp)
  406615:	0f b7 0a             	movzwl (%edx),%ecx
  406618:	73 1a                	jae    0x406634
  40661a:	8b 5d f8             	mov    -0x8(%ebp),%ebx
  40661d:	8b 55 fc             	mov    -0x4(%ebp),%edx
  406620:	c1 e2 08             	shl    $0x8,%edx
  406623:	0f b6 1b             	movzbl (%ebx),%ebx
  406626:	0b d3                	or     %ebx,%edx
  406628:	c1 e6 08             	shl    $0x8,%esi
  40662b:	ff 45 f8             	incl   -0x8(%ebp)
  40662e:	89 55 fc             	mov    %edx,-0x4(%ebp)
  406631:	8b 55 e8             	mov    -0x18(%ebp),%edx
  406634:	8b de                	mov    %esi,%ebx
  406636:	c1 eb 0b             	shr    $0xb,%ebx
  406639:	0f af d9             	imul   %ecx,%ebx
  40663c:	39 5d fc             	cmp    %ebx,-0x4(%ebp)
  40663f:	73 13                	jae    0x406654
  406641:	8b f3                	mov    %ebx,%esi
  406643:	8b df                	mov    %edi,%ebx
  406645:	2b d9                	sub    %ecx,%ebx
  406647:	c1 eb 05             	shr    $0x5,%ebx
  40664a:	03 d9                	add    %ecx,%ebx
  40664c:	8b 4d b4             	mov    -0x4c(%ebp),%ecx
  40664f:	66 89 1a             	mov    %bx,(%edx)
  406652:	eb 16                	jmp    0x40666a
  406654:	8b d1                	mov    %ecx,%edx
  406656:	29 5d fc             	sub    %ebx,-0x4(%ebp)
  406659:	c1 ea 05             	shr    $0x5,%edx
  40665c:	2b ca                	sub    %edx,%ecx
  40665e:	8b 55 e8             	mov    -0x18(%ebp),%edx
  406661:	2b f3                	sub    %ebx,%esi
  406663:	66 89 0a             	mov    %cx,(%edx)
  406666:	8b 4d b4             	mov    -0x4c(%ebp),%ecx
  406669:	41                   	inc    %ecx
  40666a:	8b 5d e0             	mov    -0x20(%ebp),%ebx
  40666d:	83 f9 40             	cmp    $0x40,%ecx
  406670:	72 92                	jb     0x406604
  406672:	83 e9 40             	sub    $0x40,%ecx
  406675:	83 f9 04             	cmp    $0x4,%ecx
  406678:	0f 82 ad 02 00 00    	jb     0x40692b
  40667e:	8b d1                	mov    %ecx,%edx
  406680:	8b d9                	mov    %ecx,%ebx
  406682:	d1 ea                	shr    %edx
  406684:	83 e3 01             	and    $0x1,%ebx
  406687:	4a                   	dec    %edx
  406688:	83 cb 02             	or     $0x2,%ebx
  40668b:	83 f9 0e             	cmp    $0xe,%ecx
  40668e:	89 55 b4             	mov    %edx,-0x4c(%ebp)
  406691:	89 5d e0             	mov    %ebx,-0x20(%ebp)
  406694:	0f 83 a4 00 00 00    	jae    0x40673e
  40669a:	8b ca                	mov    %edx,%ecx
  40669c:	c7 45 d4 01 00 00 00 	movl   $0x1,-0x2c(%ebp)
  4066a3:	d3 e3                	shl    %cl,%ebx
  4066a5:	43                   	inc    %ebx
  4066a6:	8b cb                	mov    %ebx,%ecx
  4066a8:	89 4d e0             	mov    %ecx,-0x20(%ebp)
  4066ab:	8b 55 e4             	mov    -0x1c(%ebp),%edx
  4066ae:	81 fe 00 00 00 01    	cmp    $0x1000000,%esi
  4066b4:	8d 94 4a 00 f3 ff ff 	lea    -0xd00(%edx,%ecx,2),%edx
  4066bb:	89 55 e8             	mov    %edx,-0x18(%ebp)
  4066be:	0f b7 12             	movzwl (%edx),%edx
  4066c1:	73 1a                	jae    0x4066dd
  4066c3:	8b 5d f8             	mov    -0x8(%ebp),%ebx
  4066c6:	8b 4d fc             	mov    -0x4(%ebp),%ecx
  4066c9:	c1 e1 08             	shl    $0x8,%ecx
  4066cc:	0f b6 1b             	movzbl (%ebx),%ebx
  4066cf:	0b cb                	or     %ebx,%ecx
  4066d1:	c1 e6 08             	shl    $0x8,%esi
  4066d4:	ff 45 f8             	incl   -0x8(%ebp)
  4066d7:	89 4d fc             	mov    %ecx,-0x4(%ebp)
  4066da:	8b 4d e0             	mov    -0x20(%ebp),%ecx
  4066dd:	8b de                	mov    %esi,%ebx
  4066df:	c1 eb 0b             	shr    $0xb,%ebx
  4066e2:	0f af da             	imul   %edx,%ebx
  4066e5:	39 5d fc             	cmp    %ebx,-0x4(%ebp)
  4066e8:	73 20                	jae    0x40670a
  4066ea:	8b f3                	mov    %ebx,%esi
  4066ec:	8b df                	mov    %edi,%ebx
  4066ee:	2b da                	sub    %edx,%ebx
  4066f0:	c1 eb 05             	shr    $0x5,%ebx
  4066f3:	03 da                	add    %edx,%ebx
  4066f5:	8b 55 e8             	mov    -0x18(%ebp),%edx
  4066f8:	66 89 1a             	mov    %bx,(%edx)
  4066fb:	8b 55 d4             	mov    -0x2c(%ebp),%edx
  4066fe:	03 ca                	add    %edx,%ecx
  406700:	03 d2                	add    %edx,%edx
  406702:	89 4d e0             	mov    %ecx,-0x20(%ebp)
  406705:	89 55 d4             	mov    %edx,-0x2c(%ebp)
  406708:	eb 23                	jmp    0x40672d
  40670a:	8b ca                	mov    %edx,%ecx
  40670c:	29 5d fc             	sub    %ebx,-0x4(%ebp)
  40670f:	c1 e9 05             	shr    $0x5,%ecx
  406712:	2b d1                	sub    %ecx,%edx
  406714:	8b 4d e8             	mov    -0x18(%ebp),%ecx
  406717:	2b f3                	sub    %ebx,%esi
  406719:	66 89 11             	mov    %dx,(%ecx)
  40671c:	8b 4d d4             	mov    -0x2c(%ebp),%ecx
  40671f:	03 c9                	add    %ecx,%ecx
  406721:	89 4d d4             	mov    %ecx,-0x2c(%ebp)
  406724:	8b 4d e0             	mov    -0x20(%ebp),%ecx
  406727:	03 4d d4             	add    -0x2c(%ebp),%ecx
  40672a:	89 4d e0             	mov    %ecx,-0x20(%ebp)
  40672d:	ff 4d b4             	decl   -0x4c(%ebp)
  406730:	0f 85 75 ff ff ff    	jne    0x4066ab
  406736:	2b 4d d4             	sub    -0x2c(%ebp),%ecx
  406739:	e9 ed 01 00 00       	jmp    0x40692b
  40673e:	83 ea 04             	sub    $0x4,%edx
  406741:	81 fe 00 00 00 01    	cmp    $0x1000000,%esi
  406747:	73 17                	jae    0x406760
  406749:	8b 5d f8             	mov    -0x8(%ebp),%ebx
  40674c:	8b 4d fc             	mov    -0x4(%ebp),%ecx
  40674f:	c1 e1 08             	shl    $0x8,%ecx
  406752:	0f b6 1b             	movzbl (%ebx),%ebx
  406755:	0b cb                	or     %ebx,%ecx
  406757:	c1 e6 08             	shl    $0x8,%esi
  40675a:	ff 45 f8             	incl   -0x8(%ebp)
  40675d:	89 4d fc             	mov    %ecx,-0x4(%ebp)
  406760:	d1 ee                	shr    %esi
  406762:	29 75 fc             	sub    %esi,-0x4(%ebp)
  406765:	8b 5d e0             	mov    -0x20(%ebp),%ebx
  406768:	8b 4d fc             	mov    -0x4(%ebp),%ecx
  40676b:	c1 e9 1f             	shr    $0x1f,%ecx
  40676e:	f7 d9                	neg    %ecx
  406770:	8d 5c 59 01          	lea    0x1(%ecx,%ebx,2),%ebx
  406774:	23 ce                	and    %esi,%ecx
  406776:	01 4d fc             	add    %ecx,-0x4(%ebp)
  406779:	4a                   	dec    %edx
  40677a:	89 5d e0             	mov    %ebx,-0x20(%ebp)
  40677d:	75 c2                	jne    0x406741
  40677f:	8b 4d e4             	mov    -0x1c(%ebp),%ecx
  406782:	c1 65 e0 04          	shll   $0x4,-0x20(%ebp)
  406786:	0f b7 49 02          	movzwl 0x2(%ecx),%ecx
  40678a:	81 fe 00 00 00 01    	cmp    $0x1000000,%esi
  406790:	73 17                	jae    0x4067a9
  406792:	8b 5d f8             	mov    -0x8(%ebp),%ebx
  406795:	8b 55 fc             	mov    -0x4(%ebp),%edx
  406798:	c1 e2 08             	shl    $0x8,%edx
  40679b:	0f b6 1b             	movzbl (%ebx),%ebx
  40679e:	0b d3                	or     %ebx,%edx
  4067a0:	c1 e6 08             	shl    $0x8,%esi
  4067a3:	ff 45 f8             	incl   -0x8(%ebp)
  4067a6:	89 55 fc             	mov    %edx,-0x4(%ebp)
  4067a9:	8b d6                	mov    %esi,%edx
  4067ab:	c1 ea 0b             	shr    $0xb,%edx
  4067ae:	0f af d1             	imul   %ecx,%edx
  4067b1:	39 55 fc             	cmp    %edx,-0x4(%ebp)
  4067b4:	73 1b                	jae    0x4067d1
  4067b6:	8b df                	mov    %edi,%ebx
  4067b8:	8b f2                	mov    %edx,%esi
  4067ba:	8b 55 e4             	mov    -0x1c(%ebp),%edx
  4067bd:	2b d9                	sub    %ecx,%ebx
  4067bf:	c1 eb 05             	shr    $0x5,%ebx
  4067c2:	03 d9                	add    %ecx,%ebx
  4067c4:	c7 45 e8 02 00 00 00 	movl   $0x2,-0x18(%ebp)
  4067cb:	66 89 5a 02          	mov    %bx,0x2(%edx)
  4067cf:	eb 1a                	jmp    0x4067eb
  4067d1:	29 55 fc             	sub    %edx,-0x4(%ebp)
  4067d4:	2b f2                	sub    %edx,%esi
  4067d6:	8b d1                	mov    %ecx,%edx
  4067d8:	c7 45 e8 03 00 00 00 	movl   $0x3,-0x18(%ebp)
  4067df:	c1 ea 05             	shr    $0x5,%edx
  4067e2:	2b ca                	sub    %edx,%ecx
  4067e4:	8b 55 e4             	mov    -0x1c(%ebp),%edx
  4067e7:	66 89 4a 02          	mov    %cx,0x2(%edx)
  4067eb:	8b 4d e8             	mov    -0x18(%ebp),%ecx
  4067ee:	81 fe 00 00 00 01    	cmp    $0x1000000,%esi
  4067f4:	8d 1c 4a             	lea    (%edx,%ecx,2),%ebx
  4067f7:	89 5d d4             	mov    %ebx,-0x2c(%ebp)
  4067fa:	0f b7 0b             	movzwl (%ebx),%ecx
  4067fd:	73 1a                	jae    0x406819
  4067ff:	8b 5d f8             	mov    -0x8(%ebp),%ebx
  406802:	8b 55 fc             	mov    -0x4(%ebp),%edx
  406805:	c1 e2 08             	shl    $0x8,%edx
  406808:	0f b6 1b             	movzbl (%ebx),%ebx
  40680b:	0b d3                	or     %ebx,%edx
  40680d:	8b 5d d4             	mov    -0x2c(%ebp),%ebx
  406810:	c1 e6 08             	shl    $0x8,%esi
  406813:	ff 45 f8             	incl   -0x8(%ebp)
  406816:	89 55 fc             	mov    %edx,-0x4(%ebp)
  406819:	8b d6                	mov    %esi,%edx
  40681b:	c1 ea 0b             	shr    $0xb,%edx
  40681e:	0f af d1             	imul   %ecx,%edx
  406821:	39 55 fc             	cmp    %edx,-0x4(%ebp)
  406824:	73 14                	jae    0x40683a
  406826:	8b f2                	mov    %edx,%esi
  406828:	8b d7                	mov    %edi,%edx
  40682a:	2b d1                	sub    %ecx,%edx
  40682c:	c1 ea 05             	shr    $0x5,%edx
  40682f:	03 d1                	add    %ecx,%edx
  406831:	83 45 e8 02          	addl   $0x2,-0x18(%ebp)
  406835:	66 89 13             	mov    %dx,(%ebx)
  406838:	eb 16                	jmp    0x406850
  40683a:	29 55 fc             	sub    %edx,-0x4(%ebp)
  40683d:	2b f2                	sub    %edx,%esi
  40683f:	8b d1                	mov    %ecx,%edx
  406841:	c1 ea 05             	shr    $0x5,%edx
  406844:	2b ca                	sub    %edx,%ecx
  406846:	8b 55 d4             	mov    -0x2c(%ebp),%edx
  406849:	83 45 e8 04          	addl   $0x4,-0x18(%ebp)
  40684d:	66 89 0a             	mov    %cx,(%edx)
  406850:	8b 4d e4             	mov    -0x1c(%ebp),%ecx
  406853:	8b 55 e8             	mov    -0x18(%ebp),%edx
  406856:	81 fe 00 00 00 01    	cmp    $0x1000000,%esi
  40685c:	8d 1c 51             	lea    (%ecx,%edx,2),%ebx
  40685f:	89 5d d4             	mov    %ebx,-0x2c(%ebp)
  406862:	0f b7 0b             	movzwl (%ebx),%ecx
  406865:	73 1a                	jae    0x406881
  406867:	8b 5d f8             	mov    -0x8(%ebp),%ebx
  40686a:	8b 55 fc             	mov    -0x4(%ebp),%edx
  40686d:	c1 e2 08             	shl    $0x8,%edx
  406870:	0f b6 1b             	movzbl (%ebx),%ebx
  406873:	0b d3                	or     %ebx,%edx
  406875:	8b 5d d4             	mov    -0x2c(%ebp),%ebx
  406878:	c1 e6 08             	shl    $0x8,%esi
  40687b:	ff 45 f8             	incl   -0x8(%ebp)
  40687e:	89 55 fc             	mov    %edx,-0x4(%ebp)
  406881:	8b d6                	mov    %esi,%edx
  406883:	c1 ea 0b             	shr    $0xb,%edx
  406886:	0f af d1             	imul   %ecx,%edx
  406889:	39 55 fc             	cmp    %edx,-0x4(%ebp)
  40688c:	73 14                	jae    0x4068a2
  40688e:	8b f2                	mov    %edx,%esi
  406890:	8b d7                	mov    %edi,%edx
  406892:	2b d1                	sub    %ecx,%edx
  406894:	c1 ea 05             	shr    $0x5,%edx
  406897:	03 d1                	add    %ecx,%edx
  406899:	83 45 e8 04          	addl   $0x4,-0x18(%ebp)
  40689d:	66 89 13             	mov    %dx,(%ebx)
  4068a0:	eb 16                	jmp    0x4068b8
  4068a2:	29 55 fc             	sub    %edx,-0x4(%ebp)
  4068a5:	2b f2                	sub    %edx,%esi
  4068a7:	8b d1                	mov    %ecx,%edx
  4068a9:	c1 ea 05             	shr    $0x5,%edx
  4068ac:	2b ca                	sub    %edx,%ecx
  4068ae:	8b 55 d4             	mov    -0x2c(%ebp),%edx
  4068b1:	83 45 e8 08          	addl   $0x8,-0x18(%ebp)
  4068b5:	66 89 0a             	mov    %cx,(%edx)
  4068b8:	8b 4d e4             	mov    -0x1c(%ebp),%ecx
  4068bb:	8b 55 e8             	mov    -0x18(%ebp),%edx
  4068be:	81 fe 00 00 00 01    	cmp    $0x1000000,%esi
  4068c4:	8d 1c 51             	lea    (%ecx,%edx,2),%ebx
  4068c7:	89 5d d4             	mov    %ebx,-0x2c(%ebp)
  4068ca:	0f b7 0b             	movzwl (%ebx),%ecx
  4068cd:	73 1a                	jae    0x4068e9
  4068cf:	8b 5d f8             	mov    -0x8(%ebp),%ebx
  4068d2:	8b 55 fc             	mov    -0x4(%ebp),%edx
  4068d5:	c1 e2 08             	shl    $0x8,%edx
  4068d8:	0f b6 1b             	movzbl (%ebx),%ebx
  4068db:	0b d3                	or     %ebx,%edx
  4068dd:	8b 5d d4             	mov    -0x2c(%ebp),%ebx
  4068e0:	c1 e6 08             	shl    $0x8,%esi
  4068e3:	ff 45 f8             	incl   -0x8(%ebp)
  4068e6:	89 55 fc             	mov    %edx,-0x4(%ebp)
  4068e9:	8b d6                	mov    %esi,%edx
  4068eb:	c1 ea 0b             	shr    $0xb,%edx
  4068ee:	0f af d1             	imul   %ecx,%edx
  4068f1:	39 55 fc             	cmp    %edx,-0x4(%ebp)
  4068f4:	73 14                	jae    0x40690a
  4068f6:	8b f2                	mov    %edx,%esi
  4068f8:	8b d7                	mov    %edi,%edx
  4068fa:	2b d1                	sub    %ecx,%edx
  4068fc:	c1 ea 05             	shr    $0x5,%edx
  4068ff:	03 d1                	add    %ecx,%edx
  406901:	83 6d e8 08          	subl   $0x8,-0x18(%ebp)
  406905:	66 89 13             	mov    %dx,(%ebx)
  406908:	eb 12                	jmp    0x40691c
  40690a:	29 55 fc             	sub    %edx,-0x4(%ebp)
  40690d:	2b f2                	sub    %edx,%esi
  40690f:	8b d1                	mov    %ecx,%edx
  406911:	c1 ea 05             	shr    $0x5,%edx
  406914:	2b ca                	sub    %edx,%ecx
  406916:	8b 55 d4             	mov    -0x2c(%ebp),%edx
  406919:	66 89 0a             	mov    %cx,(%edx)
  40691c:	8b 4d e0             	mov    -0x20(%ebp),%ecx
  40691f:	0b 4d e8             	or     -0x18(%ebp),%ecx
  406922:	83 f9 ff             	cmp    $0xffffffff,%ecx
  406925:	0f 84 d8 00 00 00    	je     0x406a03
  40692b:	8b 55 c4             	mov    -0x3c(%ebp),%edx
  40692e:	83 7d f4 13          	cmpl   $0x13,-0xc(%ebp)
  406932:	89 55 c0             	mov    %edx,-0x40(%ebp)
  406935:	8b 55 c8             	mov    -0x38(%ebp),%edx
  406938:	89 55 c4             	mov    %edx,-0x3c(%ebp)
  40693b:	8b 55 d8             	mov    -0x28(%ebp),%edx
  40693e:	89 55 c8             	mov    %edx,-0x38(%ebp)
  406941:	8d 51 01             	lea    0x1(%ecx),%edx
  406944:	89 55 d8             	mov    %edx,-0x28(%ebp)
  406947:	1b d2                	sbb    %edx,%edx
  406949:	83 e2 fd             	and    $0xfffffffd,%edx
  40694c:	83 c2 0a             	add    $0xa,%edx
  40694f:	89 55 f4             	mov    %edx,-0xc(%ebp)
  406952:	8b 55 b0             	mov    -0x50(%ebp),%edx
  406955:	85 d2                	test   %edx,%edx
  406957:	75 03                	jne    0x40695c
  406959:	8b 55 dc             	mov    -0x24(%ebp),%edx
  40695c:	3b ca                	cmp    %edx,%ecx
  40695e:	0f 83 ac 00 00 00    	jae    0x406a10
  406964:	8b 4d ac             	mov    -0x54(%ebp),%ecx
  406967:	83 45 ec 02          	addl   $0x2,-0x14(%ebp)
  40696b:	2b 4d f0             	sub    -0x10(%ebp),%ecx
  40696e:	0f 84 a3 00 00 00    	je     0x406a17
  406974:	8b 55 ec             	mov    -0x14(%ebp),%edx
  406977:	89 4d d4             	mov    %ecx,-0x2c(%ebp)
  40697a:	3b ca                	cmp    %edx,%ecx
  40697c:	72 03                	jb     0x406981
  40697e:	89 55 d4             	mov    %edx,-0x2c(%ebp)
  406981:	8b 55 d8             	mov    -0x28(%ebp),%edx
  406984:	8b 5d cc             	mov    -0x34(%ebp),%ebx
  406987:	39 55 f0             	cmp    %edx,-0x10(%ebp)
  40698a:	1b c9                	sbb    %ecx,%ecx
  40698c:	23 4d cc             	and    -0x34(%ebp),%ecx
  40698f:	2b ca                	sub    %edx,%ecx
  406991:	8b 55 d4             	mov    -0x2c(%ebp),%edx
  406994:	03 4d f0             	add    -0x10(%ebp),%ecx
  406997:	01 55 dc             	add    %edx,-0x24(%ebp)
  40699a:	29 55 ec             	sub    %edx,-0x14(%ebp)
  40699d:	2b d9                	sub    %ecx,%ebx
  40699f:	3b d3                	cmp    %ebx,%edx
  4069a1:	77 2a                	ja     0x4069cd
  4069a3:	8b 5d f0             	mov    -0x10(%ebp),%ebx
  4069a6:	8b 55 d0             	mov    -0x30(%ebp),%edx
  4069a9:	2b cb                	sub    %ebx,%ecx
  4069ab:	03 d3                	add    %ebx,%edx
  4069ad:	89 4d b4             	mov    %ecx,-0x4c(%ebp)
  4069b0:	8b 4d d4             	mov    -0x2c(%ebp),%ecx
  4069b3:	03 ca                	add    %edx,%ecx
  4069b5:	03 5d d4             	add    -0x2c(%ebp),%ebx
  4069b8:	89 5d f0             	mov    %ebx,-0x10(%ebp)
  4069bb:	8b 5d b4             	mov    -0x4c(%ebp),%ebx
  4069be:	8a 1c 13             	mov    (%ebx,%edx,1),%bl
  4069c1:	88 1a                	mov    %bl,(%edx)
  4069c3:	42                   	inc    %edx
  4069c4:	3b d1                	cmp    %ecx,%edx
  4069c6:	75 f3                	jne    0x4069bb
  4069c8:	8b 5d d0             	mov    -0x30(%ebp),%ebx
  4069cb:	eb 21                	jmp    0x4069ee
  4069cd:	8b 5d d0             	mov    -0x30(%ebp),%ebx
  4069d0:	8b 7d f0             	mov    -0x10(%ebp),%edi
  4069d3:	8a 14 19             	mov    (%ecx,%ebx,1),%dl
  4069d6:	ff 45 f0             	incl   -0x10(%ebp)
  4069d9:	41                   	inc    %ecx
  4069da:	3b 4d cc             	cmp    -0x34(%ebp),%ecx
  4069dd:	88 14 1f             	mov    %dl,(%edi,%ebx,1)
  4069e0:	75 02                	jne    0x4069e4
  4069e2:	33 c9                	xor    %ecx,%ecx
  4069e4:	ff 4d d4             	decl   -0x2c(%ebp)
  4069e7:	75 e7                	jne    0x4069d0
  4069e9:	bf 00 08 00 00       	mov    $0x800,%edi
  4069ee:	8b 4d f0             	mov    -0x10(%ebp),%ecx
  4069f1:	3b 4d ac             	cmp    -0x54(%ebp),%ecx
  4069f4:	73 21                	jae    0x406a17
  4069f6:	8b 4d f8             	mov    -0x8(%ebp),%ecx
  4069f9:	3b 4d 08             	cmp    0x8(%ebp),%ecx
  4069fc:	73 19                	jae    0x406a17
  4069fe:	e9 cc f5 ff ff       	jmp    0x405fcf
  406a03:	83 6d f4 0c          	subl   $0xc,-0xc(%ebp)
  406a07:	c7 45 ec 12 01 00 00 	movl   $0x112,-0x14(%ebp)
  406a0e:	eb 07                	jmp    0x406a17
  406a10:	81 45 ec 02 02 00 00 	addl   $0x202,-0x14(%ebp)
  406a17:	81 fe 00 00 00 01    	cmp    $0x1000000,%esi
  406a1d:	73 17                	jae    0x406a36
  406a1f:	8b 4d f8             	mov    -0x8(%ebp),%ecx
  406a22:	8b 55 fc             	mov    -0x4(%ebp),%edx
  406a25:	c1 e2 08             	shl    $0x8,%edx
  406a28:	0f b6 39             	movzbl (%ecx),%edi
  406a2b:	0b d7                	or     %edi,%edx
  406a2d:	c1 e6 08             	shl    $0x8,%esi
  406a30:	89 55 fc             	mov    %edx,-0x4(%ebp)
  406a33:	41                   	inc    %ecx
  406a34:	eb 03                	jmp    0x406a39
  406a36:	8b 4d f8             	mov    -0x8(%ebp),%ecx
  406a39:	8b 55 f0             	mov    -0x10(%ebp),%edx
  406a3c:	89 48 1c             	mov    %ecx,0x1c(%eax)
  406a3f:	89 50 18             	mov    %edx,0x18(%eax)
  406a42:	8b 55 dc             	mov    -0x24(%ebp),%edx
  406a45:	89 50 28             	mov    %edx,0x28(%eax)
  406a48:	8b 55 d8             	mov    -0x28(%ebp),%edx
  406a4b:	8b 4d fc             	mov    -0x4(%ebp),%ecx
  406a4e:	89 50 30             	mov    %edx,0x30(%eax)
  406a51:	8b 55 c8             	mov    -0x38(%ebp),%edx
  406a54:	89 48 24             	mov    %ecx,0x24(%eax)
  406a57:	8b 4d ec             	mov    -0x14(%ebp),%ecx
  406a5a:	89 50 34             	mov    %edx,0x34(%eax)
  406a5d:	8b 55 c4             	mov    -0x3c(%ebp),%edx
  406a60:	81 f9 00 02 00 00    	cmp    $0x200,%ecx
  406a66:	89 50 38             	mov    %edx,0x38(%eax)
  406a69:	8b 55 c0             	mov    -0x40(%ebp),%edx
  406a6c:	89 50 3c             	mov    %edx,0x3c(%eax)
  406a6f:	8b 55 f4             	mov    -0xc(%ebp),%edx
  406a72:	89 70 20             	mov    %esi,0x20(%eax)
  406a75:	89 48 44             	mov    %ecx,0x44(%eax)
  406a78:	89 50 40             	mov    %edx,0x40(%eax)
  406a7b:	5f                   	pop    %edi
  406a7c:	1b c0                	sbb    %eax,%eax
  406a7e:	5e                   	pop    %esi
  406a7f:	40                   	inc    %eax
  406a80:	5b                   	pop    %ebx
  406a81:	c9                   	leave  
  406a82:	c2 04 00             	ret    $0x4
  406a85:	55                   	push   %ebp
  406a86:	8b ec                	mov    %esp,%ebp
  406a88:	83 ec 20             	sub    $0x20,%esp
  406a8b:	8b c1                	mov    %ecx,%eax
  406a8d:	53                   	push   %ebx
  406a8e:	56                   	push   %esi
  406a8f:	57                   	push   %edi
  406a90:	8b 48 24             	mov    0x24(%eax),%ecx
  406a93:	89 55 f8             	mov    %edx,-0x8(%ebp)
  406a96:	89 4d fc             	mov    %ecx,-0x4(%ebp)
  406a99:	8b 4d 08             	mov    0x8(%ebp),%ecx
  406a9c:	6a 01                	push   $0x1
  406a9e:	8b 78 40             	mov    0x40(%eax),%edi
  406aa1:	8b 09                	mov    (%ecx),%ecx
  406aa3:	5a                   	pop    %edx
  406aa4:	89 4d e4             	mov    %ecx,-0x1c(%ebp)
  406aa7:	8a 48 02             	mov    0x2(%eax),%cl
  406aaa:	d3 e2                	shl    %cl,%edx
  406aac:	8b 58 0c             	mov    0xc(%eax),%ebx
  406aaf:	8b 70 20             	mov    0x20(%eax),%esi
  406ab2:	89 5d f4             	mov    %ebx,-0xc(%ebp)
  406ab5:	81 c2 ff ff ff 0f    	add    $0xfffffff,%edx
  406abb:	c1 e2 04             	shl    $0x4,%edx
  406abe:	8b ca                	mov    %edx,%ecx
  406ac0:	8b 50 28             	mov    0x28(%eax),%edx
  406ac3:	c1 e2 04             	shl    $0x4,%edx
  406ac6:	23 ca                	and    %edx,%ecx
  406ac8:	89 4d ec             	mov    %ecx,-0x14(%ebp)
  406acb:	03 cf                	add    %edi,%ecx
  406acd:	89 4d e0             	mov    %ecx,-0x20(%ebp)
  406ad0:	0f b7 8c 4b 00 fe ff 	movzwl -0x200(%ebx,%ecx,2),%ecx
  406ad7:	ff 
  406ad8:	bb 00 00 00 01       	mov    $0x1000000,%ebx
  406add:	89 4d f0             	mov    %ecx,-0x10(%ebp)
  406ae0:	3b f3                	cmp    %ebx,%esi
  406ae2:	73 20                	jae    0x406b04
  406ae4:	8b 4d f8             	mov    -0x8(%ebp),%ecx
  406ae7:	3b 4d e4             	cmp    -0x1c(%ebp),%ecx
  406aea:	0f 83 40 05 00 00    	jae    0x407030
  406af0:	8b 55 fc             	mov    -0x4(%ebp),%edx
  406af3:	0f b6 09             	movzbl (%ecx),%ecx
  406af6:	c1 e2 08             	shl    $0x8,%edx
  406af9:	0b d1                	or     %ecx,%edx
  406afb:	c1 e6 08             	shl    $0x8,%esi
  406afe:	ff 45 f8             	incl   -0x8(%ebp)
  406b01:	89 55 fc             	mov    %edx,-0x4(%ebp)
  406b04:	8b ce                	mov    %esi,%ecx
  406b06:	c1 e9 0b             	shr    $0xb,%ecx
  406b09:	0f af 4d f0          	imul   -0x10(%ebp),%ecx
  406b0d:	39 4d fc             	cmp    %ecx,-0x4(%ebp)
  406b10:	0f 83 4f 01 00 00    	jae    0x406c65
  406b16:	8b f1                	mov    %ecx,%esi
  406b18:	8b 4d f4             	mov    -0xc(%ebp),%ecx
  406b1b:	81 c1 80 02 00 00    	add    $0x280,%ecx
  406b21:	83 78 2c 00          	cmpl   $0x0,0x2c(%eax)
  406b25:	89 4d f4             	mov    %ecx,-0xc(%ebp)
  406b28:	75 06                	jne    0x406b30
  406b2a:	83 78 28 00          	cmpl   $0x0,0x28(%eax)
  406b2e:	74 3c                	je     0x406b6c
  406b30:	8b 48 18             	mov    0x18(%eax),%ecx
  406b33:	85 c9                	test   %ecx,%ecx
  406b35:	75 03                	jne    0x406b3a
  406b37:	8b 48 14             	mov    0x14(%eax),%ecx
  406b3a:	8b 58 10             	mov    0x10(%eax),%ebx
  406b3d:	6a 01                	push   $0x1
  406b3f:	0f b6 10             	movzbl (%eax),%edx
  406b42:	0f b6 5c 0b ff       	movzbl -0x1(%ebx,%ecx,1),%ebx
  406b47:	b1 08                	mov    $0x8,%cl
  406b49:	2a ca                	sub    %dl,%cl
  406b4b:	5a                   	pop    %edx
  406b4c:	d3 eb                	shr    %cl,%ebx
  406b4e:	8a 48 01             	mov    0x1(%eax),%cl
  406b51:	d3 e2                	shl    %cl,%edx
  406b53:	0f b6 08             	movzbl (%eax),%ecx
  406b56:	4a                   	dec    %edx
  406b57:	23 50 28             	and    0x28(%eax),%edx
  406b5a:	d3 e2                	shl    %cl,%edx
  406b5c:	03 da                	add    %edx,%ebx
  406b5e:	8d 0c 5b             	lea    (%ebx,%ebx,2),%ecx
  406b61:	bb 00 00 00 01       	mov    $0x1000000,%ebx
  406b66:	c1 e1 09             	shl    $0x9,%ecx
  406b69:	01 4d f4             	add    %ecx,-0xc(%ebp)
  406b6c:	83 ff 07             	cmp    $0x7,%edi
  406b6f:	73 57                	jae    0x406bc8
  406b71:	6a 01                	push   $0x1
  406b73:	59                   	pop    %ecx
  406b74:	8b 45 f4             	mov    -0xc(%ebp),%eax
  406b77:	03 c9                	add    %ecx,%ecx
  406b79:	3b f3                	cmp    %ebx,%esi
  406b7b:	0f b7 14 01          	movzwl (%ecx,%eax,1),%edx
  406b7f:	73 22                	jae    0x406ba3
  406b81:	8b 7d 08             	mov    0x8(%ebp),%edi
  406b84:	8b 45 f8             	mov    -0x8(%ebp),%eax
  406b87:	3b 07                	cmp    (%edi),%eax
  406b89:	0f 83 a1 04 00 00    	jae    0x407030
  406b8f:	8b 7d fc             	mov    -0x4(%ebp),%edi
  406b92:	0f b6 00             	movzbl (%eax),%eax
  406b95:	c1 e7 08             	shl    $0x8,%edi
  406b98:	0b f8                	or     %eax,%edi
  406b9a:	c1 e6 08             	shl    $0x8,%esi
  406b9d:	ff 45 f8             	incl   -0x8(%ebp)
  406ba0:	89 7d fc             	mov    %edi,-0x4(%ebp)
  406ba3:	8b c6                	mov    %esi,%eax
  406ba5:	c1 e8 0b             	shr    $0xb,%eax
  406ba8:	0f af c2             	imul   %edx,%eax
  406bab:	39 45 fc             	cmp    %eax,-0x4(%ebp)
  406bae:	73 04                	jae    0x406bb4
  406bb0:	8b f0                	mov    %eax,%esi
  406bb2:	eb 06                	jmp    0x406bba
  406bb4:	29 45 fc             	sub    %eax,-0x4(%ebp)
  406bb7:	2b f0                	sub    %eax,%esi
  406bb9:	41                   	inc    %ecx
  406bba:	81 f9 00 01 00 00    	cmp    $0x100,%ecx
  406bc0:	0f 83 93 00 00 00    	jae    0x406c59
  406bc6:	eb ac                	jmp    0x406b74
  406bc8:	8b 50 18             	mov    0x18(%eax),%edx
  406bcb:	8b 78 30             	mov    0x30(%eax),%edi
  406bce:	3b d7                	cmp    %edi,%edx
  406bd0:	73 05                	jae    0x406bd7
  406bd2:	8b 48 14             	mov    0x14(%eax),%ecx
  406bd5:	eb 02                	jmp    0x406bd9
  406bd7:	33 c9                	xor    %ecx,%ecx
  406bd9:	8b 40 10             	mov    0x10(%eax),%eax
  406bdc:	6a 01                	push   $0x1
  406bde:	2b c7                	sub    %edi,%eax
  406be0:	03 c2                	add    %edx,%eax
  406be2:	0f b6 3c 08          	movzbl (%eax,%ecx,1),%edi
  406be6:	b9 00 01 00 00       	mov    $0x100,%ecx
  406beb:	58                   	pop    %eax
  406bec:	8b d1                	mov    %ecx,%edx
  406bee:	03 ff                	add    %edi,%edi
  406bf0:	89 55 e4             	mov    %edx,-0x1c(%ebp)
  406bf3:	23 cf                	and    %edi,%ecx
  406bf5:	03 d0                	add    %eax,%edx
  406bf7:	89 4d e8             	mov    %ecx,-0x18(%ebp)
  406bfa:	03 d1                	add    %ecx,%edx
  406bfc:	8b 4d f4             	mov    -0xc(%ebp),%ecx
  406bff:	3b f3                	cmp    %ebx,%esi
  406c01:	0f b7 0c 51          	movzwl (%ecx,%edx,2),%ecx
  406c05:	89 4d f0             	mov    %ecx,-0x10(%ebp)
  406c08:	73 22                	jae    0x406c2c
  406c0a:	8b 55 08             	mov    0x8(%ebp),%edx
  406c0d:	8b 4d f8             	mov    -0x8(%ebp),%ecx
  406c10:	3b 0a                	cmp    (%edx),%ecx
  406c12:	0f 83 18 04 00 00    	jae    0x407030
  406c18:	8b 55 fc             	mov    -0x4(%ebp),%edx
  406c1b:	0f b6 09             	movzbl (%ecx),%ecx
  406c1e:	c1 e2 08             	shl    $0x8,%edx
  406c21:	0b d1                	or     %ecx,%edx
  406c23:	c1 e6 08             	shl    $0x8,%esi
  406c26:	ff 45 f8             	incl   -0x8(%ebp)
  406c29:	89 55 fc             	mov    %edx,-0x4(%ebp)
  406c2c:	8b ce                	mov    %esi,%ecx
  406c2e:	c1 e9 0b             	shr    $0xb,%ecx
  406c31:	0f af 4d f0          	imul   -0x10(%ebp),%ecx
  406c35:	39 4d fc             	cmp    %ecx,-0x4(%ebp)
  406c38:	73 0c                	jae    0x406c46
  406c3a:	8b f1                	mov    %ecx,%esi
  406c3c:	8b 4d e8             	mov    -0x18(%ebp),%ecx
  406c3f:	03 c0                	add    %eax,%eax
  406c41:	33 4d e4             	xor    -0x1c(%ebp),%ecx
  406c44:	eb 0c                	jmp    0x406c52
  406c46:	2b f1                	sub    %ecx,%esi
  406c48:	29 4d fc             	sub    %ecx,-0x4(%ebp)
  406c4b:	8b 4d e8             	mov    -0x18(%ebp),%ecx
  406c4e:	8d 44 00 01          	lea    0x1(%eax,%eax,1),%eax
  406c52:	3d 00 01 00 00       	cmp    $0x100,%eax
  406c57:	72 93                	jb     0x406bec
  406c59:	c7 45 e8 01 00 00 00 	movl   $0x1,-0x18(%ebp)
  406c60:	e9 bd 03 00 00       	jmp    0x407022
  406c65:	29 4d fc             	sub    %ecx,-0x4(%ebp)
  406c68:	8b 55 f4             	mov    -0xc(%ebp),%edx
  406c6b:	2b f1                	sub    %ecx,%esi
  406c6d:	3b f3                	cmp    %ebx,%esi
  406c6f:	73 24                	jae    0x406c95
  406c71:	8b 45 08             	mov    0x8(%ebp),%eax
  406c74:	8b 08                	mov    (%eax),%ecx
  406c76:	8b 45 f8             	mov    -0x8(%ebp),%eax
  406c79:	3b c1                	cmp    %ecx,%eax
  406c7b:	0f 83 af 03 00 00    	jae    0x407030
  406c81:	8b 4d fc             	mov    -0x4(%ebp),%ecx
  406c84:	0f b6 00             	movzbl (%eax),%eax
  406c87:	c1 e1 08             	shl    $0x8,%ecx
  406c8a:	0b c8                	or     %eax,%ecx
  406c8c:	c1 e6 08             	shl    $0x8,%esi
  406c8f:	ff 45 f8             	incl   -0x8(%ebp)
  406c92:	89 4d fc             	mov    %ecx,-0x4(%ebp)
  406c95:	0f b7 4c 7a 20       	movzwl 0x20(%edx,%edi,2),%ecx
  406c9a:	8b c6                	mov    %esi,%eax
  406c9c:	c1 e8 0b             	shr    $0xb,%eax
  406c9f:	0f af c1             	imul   %ecx,%eax
  406ca2:	39 45 fc             	cmp    %eax,-0x4(%ebp)
  406ca5:	73 18                	jae    0x406cbf
  406ca7:	83 65 e4 00          	andl   $0x0,-0x1c(%ebp)
  406cab:	8b f0                	mov    %eax,%esi
  406cad:	8d 8a 00 fa ff ff    	lea    -0x600(%edx),%ecx
  406cb3:	c7 45 e8 02 00 00 00 	movl   $0x2,-0x18(%ebp)
  406cba:	e9 2a 01 00 00       	jmp    0x406de9
  406cbf:	29 45 fc             	sub    %eax,-0x4(%ebp)
  406cc2:	2b f0                	sub    %eax,%esi
  406cc4:	3b f3                	cmp    %ebx,%esi
  406cc6:	c7 45 e8 03 00 00 00 	movl   $0x3,-0x18(%ebp)
  406ccd:	73 22                	jae    0x406cf1
  406ccf:	8b 4d 08             	mov    0x8(%ebp),%ecx
  406cd2:	8b 45 f8             	mov    -0x8(%ebp),%eax
  406cd5:	3b 01                	cmp    (%ecx),%eax
  406cd7:	0f 83 53 03 00 00    	jae    0x407030
  406cdd:	8b 4d fc             	mov    -0x4(%ebp),%ecx
  406ce0:	0f b6 00             	movzbl (%eax),%eax
  406ce3:	c1 e1 08             	shl    $0x8,%ecx
  406ce6:	0b c8                	or     %eax,%ecx
  406ce8:	c1 e6 08             	shl    $0x8,%esi
  406ceb:	ff 45 f8             	incl   -0x8(%ebp)
  406cee:	89 4d fc             	mov    %ecx,-0x4(%ebp)
  406cf1:	0f b7 44 7a 38       	movzwl 0x38(%edx,%edi,2),%eax
  406cf6:	8b ce                	mov    %esi,%ecx
  406cf8:	c1 e9 0b             	shr    $0xb,%ecx
  406cfb:	0f af c8             	imul   %eax,%ecx
  406cfe:	39 4d fc             	cmp    %ecx,-0x4(%ebp)
  406d01:	73 52                	jae    0x406d55
  406d03:	8b 45 e0             	mov    -0x20(%ebp),%eax
  406d06:	3b cb                	cmp    %ebx,%ecx
  406d08:	8b f1                	mov    %ecx,%esi
  406d0a:	0f b7 84 42 00 f4 ff 	movzwl -0xc00(%edx,%eax,2),%eax
  406d11:	ff 
  406d12:	89 45 f0             	mov    %eax,-0x10(%ebp)
  406d15:	73 25                	jae    0x406d3c
  406d17:	8b 75 08             	mov    0x8(%ebp),%esi
  406d1a:	8b 45 f8             	mov    -0x8(%ebp),%eax
  406d1d:	3b 06                	cmp    (%esi),%eax
  406d1f:	0f 83 0b 03 00 00    	jae    0x407030
  406d25:	0f b6 38             	movzbl (%eax),%edi
  406d28:	c1 e1 08             	shl    $0x8,%ecx
  406d2b:	8b f1                	mov    %ecx,%esi
  406d2d:	8b 4d fc             	mov    -0x4(%ebp),%ecx
  406d30:	c1 e1 08             	shl    $0x8,%ecx
  406d33:	0b cf                	or     %edi,%ecx
  406d35:	40                   	inc    %eax
  406d36:	89 4d fc             	mov    %ecx,-0x4(%ebp)
  406d39:	89 45 f8             	mov    %eax,-0x8(%ebp)
  406d3c:	8b c6                	mov    %esi,%eax
  406d3e:	c1 e8 0b             	shr    $0xb,%eax
  406d41:	0f af 45 f0          	imul   -0x10(%ebp),%eax
  406d45:	39 45 fc             	cmp    %eax,-0x4(%ebp)
  406d48:	0f 83 89 00 00 00    	jae    0x406dd7
  406d4e:	8b f0                	mov    %eax,%esi
  406d50:	e9 cd 02 00 00       	jmp    0x407022
  406d55:	29 4d fc             	sub    %ecx,-0x4(%ebp)
  406d58:	2b f1                	sub    %ecx,%esi
  406d5a:	3b f3                	cmp    %ebx,%esi
  406d5c:	73 22                	jae    0x406d80
  406d5e:	8b 4d 08             	mov    0x8(%ebp),%ecx
  406d61:	8b 45 f8             	mov    -0x8(%ebp),%eax
  406d64:	3b 01                	cmp    (%ecx),%eax
  406d66:	0f 83 c4 02 00 00    	jae    0x407030
  406d6c:	8b 4d fc             	mov    -0x4(%ebp),%ecx
  406d6f:	0f b6 00             	movzbl (%eax),%eax
  406d72:	c1 e1 08             	shl    $0x8,%ecx
  406d75:	0b c8                	or     %eax,%ecx
  406d77:	c1 e6 08             	shl    $0x8,%esi
  406d7a:	ff 45 f8             	incl   -0x8(%ebp)
  406d7d:	89 4d fc             	mov    %ecx,-0x4(%ebp)
  406d80:	0f b7 44 7a 50       	movzwl 0x50(%edx,%edi,2),%eax
  406d85:	8b ce                	mov    %esi,%ecx
  406d87:	c1 e9 0b             	shr    $0xb,%ecx
  406d8a:	0f af c8             	imul   %eax,%ecx
  406d8d:	39 4d fc             	cmp    %ecx,-0x4(%ebp)
  406d90:	73 04                	jae    0x406d96
  406d92:	8b f1                	mov    %ecx,%esi
  406d94:	eb 46                	jmp    0x406ddc
  406d96:	29 4d fc             	sub    %ecx,-0x4(%ebp)
  406d99:	2b f1                	sub    %ecx,%esi
  406d9b:	0f b7 4c 7a 68       	movzwl 0x68(%edx,%edi,2),%ecx
  406da0:	3b f3                	cmp    %ebx,%esi
  406da2:	73 22                	jae    0x406dc6
  406da4:	8b 7d 08             	mov    0x8(%ebp),%edi
  406da7:	8b 45 f8             	mov    -0x8(%ebp),%eax
  406daa:	3b 07                	cmp    (%edi),%eax
  406dac:	0f 83 7e 02 00 00    	jae    0x407030
  406db2:	8b 7d fc             	mov    -0x4(%ebp),%edi
  406db5:	0f b6 00             	movzbl (%eax),%eax
  406db8:	c1 e7 08             	shl    $0x8,%edi
  406dbb:	0b f8                	or     %eax,%edi
  406dbd:	c1 e6 08             	shl    $0x8,%esi
  406dc0:	ff 45 f8             	incl   -0x8(%ebp)
  406dc3:	89 7d fc             	mov    %edi,-0x4(%ebp)
  406dc6:	8b c6                	mov    %esi,%eax
  406dc8:	c1 e8 0b             	shr    $0xb,%eax
  406dcb:	0f af c1             	imul   %ecx,%eax
  406dce:	39 45 fc             	cmp    %eax,-0x4(%ebp)
  406dd1:	73 04                	jae    0x406dd7
  406dd3:	8b f0                	mov    %eax,%esi
  406dd5:	eb 05                	jmp    0x406ddc
  406dd7:	2b f0                	sub    %eax,%esi
  406dd9:	29 45 fc             	sub    %eax,-0x4(%ebp)
  406ddc:	c7 45 e4 0c 00 00 00 	movl   $0xc,-0x1c(%ebp)
  406de3:	8d 8a 00 f6 ff ff    	lea    -0xa00(%edx),%ecx
  406de9:	3b f3                	cmp    %ebx,%esi
  406deb:	73 23                	jae    0x406e10
  406ded:	8b 55 08             	mov    0x8(%ebp),%edx
  406df0:	8b 45 f8             	mov    -0x8(%ebp),%eax
  406df3:	3b 02                	cmp    (%edx),%eax
  406df5:	0f 83 35 02 00 00    	jae    0x407030
  406dfb:	8b 55 fc             	mov    -0x4(%ebp),%edx
  406dfe:	0f b6 38             	movzbl (%eax),%edi
  406e01:	c1 e2 08             	shl    $0x8,%edx
  406e04:	c1 e6 08             	shl    $0x8,%esi
  406e07:	0b d7                	or     %edi,%edx
  406e09:	40                   	inc    %eax
  406e0a:	89 55 fc             	mov    %edx,-0x4(%ebp)
  406e0d:	89 45 f8             	mov    %eax,-0x8(%ebp)
  406e10:	0f b7 01             	movzwl (%ecx),%eax
  406e13:	8b fe                	mov    %esi,%edi
  406e15:	c1 ef 0b             	shr    $0xb,%edi
  406e18:	0f af f8             	imul   %eax,%edi
  406e1b:	39 7d fc             	cmp    %edi,-0x4(%ebp)
  406e1e:	73 15                	jae    0x406e35
  406e20:	8b 45 ec             	mov    -0x14(%ebp),%eax
  406e23:	83 65 ec 00          	andl   $0x0,-0x14(%ebp)
  406e27:	8b f7                	mov    %edi,%esi
  406e29:	c7 45 f0 08 00 00 00 	movl   $0x8,-0x10(%ebp)
  406e30:	8d 0c 41             	lea    (%ecx,%eax,2),%ecx
  406e33:	eb 69                	jmp    0x406e9e
  406e35:	29 7d fc             	sub    %edi,-0x4(%ebp)
  406e38:	2b f7                	sub    %edi,%esi
  406e3a:	0f b7 41 10          	movzwl 0x10(%ecx),%eax
  406e3e:	3b f3                	cmp    %ebx,%esi
  406e40:	73 22                	jae    0x406e64
  406e42:	8b 7d 08             	mov    0x8(%ebp),%edi
  406e45:	8b 55 f8             	mov    -0x8(%ebp),%edx
  406e48:	3b 17                	cmp    (%edi),%edx
  406e4a:	0f 83 e0 01 00 00    	jae    0x407030
  406e50:	8b 7d fc             	mov    -0x4(%ebp),%edi
  406e53:	0f b6 12             	movzbl (%edx),%edx
  406e56:	c1 e7 08             	shl    $0x8,%edi
  406e59:	0b fa                	or     %edx,%edi
  406e5b:	c1 e6 08             	shl    $0x8,%esi
  406e5e:	ff 45 f8             	incl   -0x8(%ebp)
  406e61:	89 7d fc             	mov    %edi,-0x4(%ebp)
  406e64:	8b fe                	mov    %esi,%edi
  406e66:	c1 ef 0b             	shr    $0xb,%edi
  406e69:	0f af f8             	imul   %eax,%edi
  406e6c:	39 7d fc             	cmp    %edi,-0x4(%ebp)
  406e6f:	73 14                	jae    0x406e85
  406e71:	8b 45 ec             	mov    -0x14(%ebp),%eax
  406e74:	6a 08                	push   $0x8
  406e76:	8b f7                	mov    %edi,%esi
  406e78:	8d 4c 41 10          	lea    0x10(%ecx,%eax,2),%ecx
  406e7c:	58                   	pop    %eax
  406e7d:	89 45 ec             	mov    %eax,-0x14(%ebp)
  406e80:	89 45 f0             	mov    %eax,-0x10(%ebp)
  406e83:	eb 19                	jmp    0x406e9e
  406e85:	29 7d fc             	sub    %edi,-0x4(%ebp)
  406e88:	2b f7                	sub    %edi,%esi
  406e8a:	81 c1 00 02 00 00    	add    $0x200,%ecx
  406e90:	c7 45 ec 10 00 00 00 	movl   $0x10,-0x14(%ebp)
  406e97:	c7 45 f0 00 01 00 00 	movl   $0x100,-0x10(%ebp)
  406e9e:	6a 01                	push   $0x1
  406ea0:	58                   	pop    %eax
  406ea1:	03 c0                	add    %eax,%eax
  406ea3:	3b f3                	cmp    %ebx,%esi
  406ea5:	73 22                	jae    0x406ec9
  406ea7:	8b 7d 08             	mov    0x8(%ebp),%edi
  406eaa:	8b 55 f8             	mov    -0x8(%ebp),%edx
  406ead:	3b 17                	cmp    (%edi),%edx
  406eaf:	0f 83 7b 01 00 00    	jae    0x407030
  406eb5:	8b 7d fc             	mov    -0x4(%ebp),%edi
  406eb8:	0f b6 12             	movzbl (%edx),%edx
  406ebb:	c1 e7 08             	shl    $0x8,%edi
  406ebe:	0b fa                	or     %edx,%edi
  406ec0:	c1 e6 08             	shl    $0x8,%esi
  406ec3:	ff 45 f8             	incl   -0x8(%ebp)
  406ec6:	89 7d fc             	mov    %edi,-0x4(%ebp)
  406ec9:	0f b7 14 08          	movzwl (%eax,%ecx,1),%edx
  406ecd:	8b fe                	mov    %esi,%edi
  406ecf:	c1 ef 0b             	shr    $0xb,%edi
  406ed2:	0f af fa             	imul   %edx,%edi
  406ed5:	39 7d fc             	cmp    %edi,-0x4(%ebp)
  406ed8:	73 04                	jae    0x406ede
  406eda:	8b f7                	mov    %edi,%esi
  406edc:	eb 06                	jmp    0x406ee4
  406ede:	29 7d fc             	sub    %edi,-0x4(%ebp)
  406ee1:	2b f7                	sub    %edi,%esi
  406ee3:	40                   	inc    %eax
  406ee4:	3b 45 f0             	cmp    -0x10(%ebp),%eax
  406ee7:	72 b8                	jb     0x406ea1
  406ee9:	8b 4d ec             	mov    -0x14(%ebp),%ecx
  406eec:	2b 4d f0             	sub    -0x10(%ebp),%ecx
  406eef:	03 c1                	add    %ecx,%eax
  406ef1:	83 7d e4 04          	cmpl   $0x4,-0x1c(%ebp)
  406ef5:	0f 83 27 01 00 00    	jae    0x407022
  406efb:	83 f8 03             	cmp    $0x3,%eax
  406efe:	72 03                	jb     0x406f03
  406f00:	6a 03                	push   $0x3
  406f02:	58                   	pop    %eax
  406f03:	8d 48 01             	lea    0x1(%eax),%ecx
  406f06:	6a 01                	push   $0x1
  406f08:	c1 e1 07             	shl    $0x7,%ecx
  406f0b:	03 4d f4             	add    -0xc(%ebp),%ecx
  406f0e:	5f                   	pop    %edi
  406f0f:	03 ff                	add    %edi,%edi
  406f11:	3b f3                	cmp    %ebx,%esi
  406f13:	73 22                	jae    0x406f37
  406f15:	8b 55 08             	mov    0x8(%ebp),%edx
  406f18:	8b 45 f8             	mov    -0x8(%ebp),%eax
  406f1b:	3b 02                	cmp    (%edx),%eax
  406f1d:	0f 83 0d 01 00 00    	jae    0x407030
  406f23:	8b 55 fc             	mov    -0x4(%ebp),%edx
  406f26:	0f b6 00             	movzbl (%eax),%eax
  406f29:	c1 e2 08             	shl    $0x8,%edx
  406f2c:	0b d0                	or     %eax,%edx
  406f2e:	c1 e6 08             	shl    $0x8,%esi
  406f31:	ff 45 f8             	incl   -0x8(%ebp)
  406f34:	89 55 fc             	mov    %edx,-0x4(%ebp)
  406f37:	0f b7 14 0f          	movzwl (%edi,%ecx,1),%edx
  406f3b:	8b c6                	mov    %esi,%eax
  406f3d:	c1 e8 0b             	shr    $0xb,%eax
  406f40:	0f af c2             	imul   %edx,%eax
  406f43:	39 45 fc             	cmp    %eax,-0x4(%ebp)
  406f46:	73 04                	jae    0x406f4c
  406f48:	8b f0                	mov    %eax,%esi
  406f4a:	eb 06                	jmp    0x406f52
  406f4c:	29 45 fc             	sub    %eax,-0x4(%ebp)
  406f4f:	2b f0                	sub    %eax,%esi
  406f51:	47                   	inc    %edi
  406f52:	83 ff 40             	cmp    $0x40,%edi
  406f55:	72 b8                	jb     0x406f0f
  406f57:	83 ef 40             	sub    $0x40,%edi
  406f5a:	83 ff 04             	cmp    $0x4,%edi
  406f5d:	0f 82 bf 00 00 00    	jb     0x407022
  406f63:	8b cf                	mov    %edi,%ecx
  406f65:	d1 e9                	shr    %ecx
  406f67:	49                   	dec    %ecx
  406f68:	83 ff 0e             	cmp    $0xe,%edi
  406f6b:	89 4d ec             	mov    %ecx,-0x14(%ebp)
  406f6e:	73 17                	jae    0x406f87
  406f70:	8b 45 f4             	mov    -0xc(%ebp),%eax
  406f73:	83 e7 01             	and    $0x1,%edi
  406f76:	83 cf 02             	or     $0x2,%edi
  406f79:	d3 e7                	shl    %cl,%edi
  406f7b:	8d 84 78 00 f3 ff ff 	lea    -0xd00(%eax,%edi,2),%eax
  406f82:	89 45 f4             	mov    %eax,-0xc(%ebp)
  406f85:	eb 4a                	jmp    0x406fd1
  406f87:	8b 45 f8             	mov    -0x8(%ebp),%eax
  406f8a:	83 e9 04             	sub    $0x4,%ecx
  406f8d:	3b f3                	cmp    %ebx,%esi
  406f8f:	73 20                	jae    0x406fb1
  406f91:	8b 55 08             	mov    0x8(%ebp),%edx
  406f94:	3b 02                	cmp    (%edx),%eax
  406f96:	0f 83 94 00 00 00    	jae    0x407030
  406f9c:	8b 55 fc             	mov    -0x4(%ebp),%edx
  406f9f:	0f b6 38             	movzbl (%eax),%edi
  406fa2:	c1 e2 08             	shl    $0x8,%edx
  406fa5:	c1 e6 08             	shl    $0x8,%esi
  406fa8:	0b d7                	or     %edi,%edx
  406faa:	40                   	inc    %eax
  406fab:	89 55 fc             	mov    %edx,-0x4(%ebp)
  406fae:	89 45 f8             	mov    %eax,-0x8(%ebp)
  406fb1:	8b 55 fc             	mov    -0x4(%ebp),%edx
  406fb4:	d1 ee                	shr    %esi
  406fb6:	2b d6                	sub    %esi,%edx
  406fb8:	c1 ea 1f             	shr    $0x1f,%edx
  406fbb:	4a                   	dec    %edx
  406fbc:	23 d6                	and    %esi,%edx
  406fbe:	29 55 fc             	sub    %edx,-0x4(%ebp)
  406fc1:	49                   	dec    %ecx
  406fc2:	75 c9                	jne    0x406f8d
  406fc4:	8b 45 f4             	mov    -0xc(%ebp),%eax
  406fc7:	c7 45 ec 04 00 00 00 	movl   $0x4,-0x14(%ebp)
  406fce:	89 45 f4             	mov    %eax,-0xc(%ebp)
  406fd1:	6a 01                	push   $0x1
  406fd3:	59                   	pop    %ecx
  406fd4:	8b f9                	mov    %ecx,%edi
  406fd6:	3b f3                	cmp    %ebx,%esi
  406fd8:	73 1e                	jae    0x406ff8
  406fda:	8b 55 08             	mov    0x8(%ebp),%edx
  406fdd:	8b 45 f8             	mov    -0x8(%ebp),%eax
  406fe0:	3b 02                	cmp    (%edx),%eax
  406fe2:	73 4c                	jae    0x407030
  406fe4:	8b 55 fc             	mov    -0x4(%ebp),%edx
  406fe7:	0f b6 00             	movzbl (%eax),%eax
  406fea:	c1 e2 08             	shl    $0x8,%edx
  406fed:	0b d0                	or     %eax,%edx
  406fef:	c1 e6 08             	shl    $0x8,%esi
  406ff2:	ff 45 f8             	incl   -0x8(%ebp)
  406ff5:	89 55 fc             	mov    %edx,-0x4(%ebp)
  406ff8:	8b 55 f4             	mov    -0xc(%ebp),%edx
  406ffb:	8b c6                	mov    %esi,%eax
  406ffd:	c1 e8 0b             	shr    $0xb,%eax
  407000:	0f b7 14 7a          	movzwl (%edx,%edi,2),%edx
  407004:	0f af c2             	imul   %edx,%eax
  407007:	39 45 fc             	cmp    %eax,-0x4(%ebp)
  40700a:	73 08                	jae    0x407014
  40700c:	03 f9                	add    %ecx,%edi
  40700e:	8b f0                	mov    %eax,%esi
  407010:	03 c9                	add    %ecx,%ecx
  407012:	eb 09                	jmp    0x40701d
  407014:	29 45 fc             	sub    %eax,-0x4(%ebp)
  407017:	03 c9                	add    %ecx,%ecx
  407019:	2b f0                	sub    %eax,%esi
  40701b:	03 f9                	add    %ecx,%edi
  40701d:	ff 4d ec             	decl   -0x14(%ebp)
  407020:	75 b4                	jne    0x406fd6
  407022:	8b 45 f8             	mov    -0x8(%ebp),%eax
  407025:	3b f3                	cmp    %ebx,%esi
  407027:	73 0c                	jae    0x407035
  407029:	8b 4d 08             	mov    0x8(%ebp),%ecx
  40702c:	3b 01                	cmp    (%ecx),%eax
  40702e:	72 04                	jb     0x407034
  407030:	33 c0                	xor    %eax,%eax
  407032:	eb 09                	jmp    0x40703d
  407034:	40                   	inc    %eax
  407035:	8b 4d 08             	mov    0x8(%ebp),%ecx
  407038:	89 01                	mov    %eax,(%ecx)
  40703a:	8b 45 e8             	mov    -0x18(%ebp),%eax
  40703d:	5f                   	pop    %edi
  40703e:	5e                   	pop    %esi
  40703f:	5b                   	pop    %ebx
  407040:	c9                   	leave  
  407041:	c2 04 00             	ret    $0x4
  407044:	56                   	push   %esi
  407045:	8b f1                	mov    %ecx,%esi
  407047:	8b c2                	mov    %edx,%eax
  407049:	8b 56 08             	mov    0x8(%esi),%edx
  40704c:	8b c8                	mov    %eax,%ecx
  40704e:	ff 50 04             	call   *0x4(%eax)
  407051:	83 66 08 00          	andl   $0x0,0x8(%esi)
  407055:	5e                   	pop    %esi
  407056:	c3                   	ret    
  407057:	83 7c 24 04 05       	cmpl   $0x5,0x4(%esp)
  40705c:	56                   	push   %esi
  40705d:	72 2f                	jb     0x40708e
  40705f:	0f b6 72 02          	movzbl 0x2(%edx),%esi
  407063:	33 c0                	xor    %eax,%eax
  407065:	8a 62 04             	mov    0x4(%edx),%ah
  407068:	8a 42 03             	mov    0x3(%edx),%al
  40706b:	c1 e0 08             	shl    $0x8,%eax
  40706e:	0b c6                	or     %esi,%eax
  407070:	0f b6 72 01          	movzbl 0x1(%edx),%esi
  407074:	c1 e0 08             	shl    $0x8,%eax
  407077:	0b c6                	or     %esi,%eax
  407079:	be 00 10 00 00       	mov    $0x1000,%esi
  40707e:	3b c6                	cmp    %esi,%eax
  407080:	73 02                	jae    0x407084
  407082:	8b c6                	mov    %esi,%eax
  407084:	89 41 04             	mov    %eax,0x4(%ecx)
  407087:	8a 12                	mov    (%edx),%dl
  407089:	80 fa e1             	cmp    $0xe1,%dl
  40708c:	72 05                	jb     0x407093
  40708e:	6a 04                	push   $0x4
  407090:	58                   	pop    %eax
  407091:	eb 30                	jmp    0x4070c3
  407093:	0f b6 f2             	movzbl %dl,%esi
  407096:	57                   	push   %edi
  407097:	8b c6                	mov    %esi,%eax
  407099:	6a 09                	push   $0x9
  40709b:	99                   	cltd   
  40709c:	5f                   	pop    %edi
  40709d:	f7 ff                	idiv   %edi
  40709f:	8b c6                	mov    %esi,%eax
  4070a1:	57                   	push   %edi
  4070a2:	5e                   	pop    %esi
  4070a3:	6a 05                	push   $0x5
  4070a5:	5f                   	pop    %edi
  4070a6:	57                   	push   %edi
  4070a7:	88 11                	mov    %dl,(%ecx)
  4070a9:	99                   	cltd   
  4070aa:	f7 fe                	idiv   %esi
  4070ac:	0f b6 f0             	movzbl %al,%esi
  4070af:	8b c6                	mov    %esi,%eax
  4070b1:	99                   	cltd   
  4070b2:	f7 ff                	idiv   %edi
  4070b4:	88 41 02             	mov    %al,0x2(%ecx)
  4070b7:	8b c6                	mov    %esi,%eax
  4070b9:	99                   	cltd   
  4070ba:	5e                   	pop    %esi
  4070bb:	5f                   	pop    %edi
  4070bc:	f7 fe                	idiv   %esi
  4070be:	33 c0                	xor    %eax,%eax
  4070c0:	88 51 01             	mov    %dl,0x1(%ecx)
  4070c3:	5e                   	pop    %esi
  4070c4:	c2 04 00             	ret    $0x4
  4070c7:	55                   	push   %ebp
  4070c8:	8b ec                	mov    %esp,%ebp
  4070ca:	51                   	push   %ecx
  4070cb:	51                   	push   %ecx
  4070cc:	56                   	push   %esi
  4070cd:	8b f1                	mov    %ecx,%esi
  4070cf:	ff 75 08             	push   0x8(%ebp)
  4070d2:	8d 4d f8             	lea    -0x8(%ebp),%ecx
  4070d5:	e8 7d ff ff ff       	call   0x407057
  4070da:	85 c0                	test   %eax,%eax
  4070dc:	75 1e                	jne    0x4070fc
  4070de:	ff 75 0c             	push   0xc(%ebp)
  4070e1:	8d 55 f8             	lea    -0x8(%ebp),%edx
  4070e4:	8b ce                	mov    %esi,%ecx
  4070e6:	e8 16 00 00 00       	call   0x407101
  4070eb:	85 c0                	test   %eax,%eax
  4070ed:	75 0d                	jne    0x4070fc
  4070ef:	8b 45 f8             	mov    -0x8(%ebp),%eax
  4070f2:	89 06                	mov    %eax,(%esi)
  4070f4:	8b 45 fc             	mov    -0x4(%ebp),%eax
  4070f7:	89 46 04             	mov    %eax,0x4(%esi)
  4070fa:	33 c0                	xor    %eax,%eax
  4070fc:	5e                   	pop    %esi
  4070fd:	c9                   	leave  
  4070fe:	c2 08 00             	ret    $0x8
  407101:	8a 02                	mov    (%edx),%al
  407103:	56                   	push   %esi
  407104:	57                   	push   %edi
  407105:	8b f9                	mov    %ecx,%edi
  407107:	8a 4a 01             	mov    0x1(%edx),%cl
  40710a:	be 00 03 00 00       	mov    $0x300,%esi
  40710f:	03 c8                	add    %eax,%ecx
  407111:	d3 e6                	shl    %cl,%esi
  407113:	81 c6 c0 07 00 00    	add    $0x7c0,%esi
  407119:	83 7f 08 00          	cmpl   $0x0,0x8(%edi)
  40711d:	74 05                	je     0x407124
  40711f:	3b 77 48             	cmp    0x48(%edi),%esi
  407122:	74 2d                	je     0x407151
  407124:	53                   	push   %ebx
  407125:	8b 5c 24 10          	mov    0x10(%esp),%ebx
  407129:	8b d3                	mov    %ebx,%edx
  40712b:	8b cf                	mov    %edi,%ecx
  40712d:	e8 12 ff ff ff       	call   0x407044
  407132:	8d 14 36             	lea    (%esi,%esi,1),%edx
  407135:	8b cb                	mov    %ebx,%ecx
  407137:	ff 13                	call   *(%ebx)
  407139:	85 c0                	test   %eax,%eax
  40713b:	89 47 08             	mov    %eax,0x8(%edi)
  40713e:	5b                   	pop    %ebx
  40713f:	75 05                	jne    0x407146
  407141:	6a 02                	push   $0x2
  407143:	58                   	pop    %eax
  407144:	eb 0d                	jmp    0x407153
  407146:	05 00 0d 00 00       	add    $0xd00,%eax
  40714b:	89 77 48             	mov    %esi,0x48(%edi)
  40714e:	89 47 0c             	mov    %eax,0xc(%edi)
  407151:	33 c0                	xor    %eax,%eax
  407153:	5f                   	pop    %edi
  407154:	5e                   	pop    %esi
  407155:	c2 04 00             	ret    $0x4
  407158:	68 e0 a8 40 00       	push   $0x40a8e0
  40715d:	ff 74 24 08          	push   0x8(%esp)
  407161:	e8 ca 02 00 00       	call   0x407430
  407166:	c2 04 00             	ret    $0x4
  407169:	8b c2                	mov    %edx,%eax
  40716b:	8b d1                	mov    %ecx,%edx
  40716d:	50                   	push   %eax
  40716e:	83 c9 ff             	or     $0xffffffff,%ecx
  407171:	e8 e2 ff ff ff       	call   0x407158
  407176:	f7 d0                	not    %eax
  407178:	c3                   	ret    
  407179:	53                   	push   %ebx
  40717a:	56                   	push   %esi
  40717b:	57                   	push   %edi
  40717c:	33 f6                	xor    %esi,%esi
  40717e:	ba e0 a8 40 00       	mov    $0x40a8e0,%edx
  407183:	b9 e0 ac 40 00       	mov    $0x40ace0,%ecx
  407188:	6a 08                	push   $0x8
  40718a:	8b c6                	mov    %esi,%eax
  40718c:	5f                   	pop    %edi
  40718d:	8b d8                	mov    %eax,%ebx
  40718f:	83 e3 01             	and    $0x1,%ebx
  407192:	f7 db                	neg    %ebx
  407194:	81 e3 20 83 b8 ed    	and    $0xedb88320,%ebx
  40719a:	d1 e8                	shr    %eax
  40719c:	33 c3                	xor    %ebx,%eax
  40719e:	4f                   	dec    %edi
  40719f:	75 ec                	jne    0x40718d
  4071a1:	89 02                	mov    %eax,(%edx)
  4071a3:	83 c2 04             	add    $0x4,%edx
  4071a6:	46                   	inc    %esi
  4071a7:	3b d1                	cmp    %ecx,%edx
  4071a9:	72 dd                	jb     0x407188
  4071ab:	5f                   	pop    %edi
  4071ac:	5e                   	pop    %esi
  4071ad:	5b                   	pop    %ebx
  4071ae:	8b 81 00 fc ff ff    	mov    -0x400(%ecx),%eax
  4071b4:	8b d0                	mov    %eax,%edx
  4071b6:	81 e2 ff 00 00 00    	and    $0xff,%edx
  4071bc:	c1 e8 08             	shr    $0x8,%eax
  4071bf:	8b 14 95 e0 a8 40 00 	mov    0x40a8e0(,%edx,4),%edx
  4071c6:	33 d0                	xor    %eax,%edx
  4071c8:	89 11                	mov    %edx,(%ecx)
  4071ca:	83 c1 04             	add    $0x4,%ecx
  4071cd:	81 f9 e0 d8 40 00    	cmp    $0x40d8e0,%ecx
  4071d3:	72 d9                	jb     0x4071ae
  4071d5:	c3                   	ret    
  4071d6:	ff 25 cc 80 40 00    	jmp    *0x4080cc
  4071dc:	cc                   	int3   
  4071dd:	cc                   	int3   
  4071de:	cc                   	int3   
  4071df:	cc                   	int3   
  4071e0:	51                   	push   %ecx
  4071e1:	3d 00 10 00 00       	cmp    $0x1000,%eax
  4071e6:	8d 4c 24 08          	lea    0x8(%esp),%ecx
  4071ea:	72 14                	jb     0x407200
  4071ec:	81 e9 00 10 00 00    	sub    $0x1000,%ecx
  4071f2:	2d 00 10 00 00       	sub    $0x1000,%eax
  4071f7:	85 01                	test   %eax,(%ecx)
  4071f9:	3d 00 10 00 00       	cmp    $0x1000,%eax
  4071fe:	73 ec                	jae    0x4071ec
  407200:	2b c8                	sub    %eax,%ecx
  407202:	8b c4                	mov    %esp,%eax
  407204:	85 01                	test   %eax,(%ecx)
  407206:	8b e1                	mov    %ecx,%esp
  407208:	8b 08                	mov    (%eax),%ecx
  40720a:	8b 40 04             	mov    0x4(%eax),%eax
  40720d:	50                   	push   %eax
  40720e:	c3                   	ret    
  40720f:	cc                   	int3   
  407210:	80 f9 40             	cmp    $0x40,%cl
  407213:	73 15                	jae    0x40722a
  407215:	80 f9 20             	cmp    $0x20,%cl
  407218:	73 06                	jae    0x407220
  40721a:	0f ad d0             	shrd   %cl,%edx,%eax
  40721d:	d3 ea                	shr    %cl,%edx
  40721f:	c3                   	ret    
  407220:	8b c2                	mov    %edx,%eax
  407222:	33 d2                	xor    %edx,%edx
  407224:	80 e1 1f             	and    $0x1f,%cl
  407227:	d3 e8                	shr    %cl,%eax
  407229:	c3                   	ret    
  40722a:	33 c0                	xor    %eax,%eax
  40722c:	33 d2                	xor    %edx,%edx
  40722e:	c3                   	ret    
  40722f:	cc                   	int3   
  407230:	80 f9 40             	cmp    $0x40,%cl
  407233:	73 15                	jae    0x40724a
  407235:	80 f9 20             	cmp    $0x20,%cl
  407238:	73 06                	jae    0x407240
  40723a:	0f a5 c2             	shld   %cl,%eax,%edx
  40723d:	d3 e0                	shl    %cl,%eax
  40723f:	c3                   	ret    
  407240:	8b d0                	mov    %eax,%edx
  407242:	33 c0                	xor    %eax,%eax
  407244:	80 e1 1f             	and    $0x1f,%cl
  407247:	d3 e2                	shl    %cl,%edx
  407249:	c3                   	ret    
  40724a:	33 c0                	xor    %eax,%eax
  40724c:	33 d2                	xor    %edx,%edx
  40724e:	c3                   	ret    
  40724f:	cc                   	int3   
  407250:	ff 25 c8 80 40 00    	jmp    *0x4080c8
  407256:	ff 25 e0 80 40 00    	jmp    *0x4080e0
  40725c:	cc                   	int3   
  40725d:	cc                   	int3   
  40725e:	cc                   	int3   
  40725f:	cc                   	int3   
  407260:	8b 44 24 08          	mov    0x8(%esp),%eax
  407264:	8b 4c 24 10          	mov    0x10(%esp),%ecx
  407268:	0b c8                	or     %eax,%ecx
  40726a:	8b 4c 24 0c          	mov    0xc(%esp),%ecx
  40726e:	75 09                	jne    0x407279
  407270:	8b 44 24 04          	mov    0x4(%esp),%eax
  407274:	f7 e1                	mul    %ecx
  407276:	c2 10 00             	ret    $0x10
  407279:	53                   	push   %ebx
  40727a:	f7 e1                	mul    %ecx
  40727c:	8b d8                	mov    %eax,%ebx
  40727e:	8b 44 24 08          	mov    0x8(%esp),%eax
  407282:	f7 64 24 14          	mull   0x14(%esp)
  407286:	03 d8                	add    %eax,%ebx
  407288:	8b 44 24 08          	mov    0x8(%esp),%eax
  40728c:	f7 e1                	mul    %ecx
  40728e:	03 d3                	add    %ebx,%edx
  407290:	5b                   	pop    %ebx
  407291:	c2 10 00             	ret    $0x10
  407294:	55                   	push   %ebp
  407295:	8b ec                	mov    %esp,%ebp
  407297:	6a ff                	push   $0xffffffff
  407299:	68 38 8c 40 00       	push   $0x408c38
  40729e:	68 20 74 40 00       	push   $0x407420
  4072a3:	64 a1 00 00 00 00    	mov    %fs:0x0,%eax
  4072a9:	50                   	push   %eax
  4072aa:	64 89 25 00 00 00 00 	mov    %esp,%fs:0x0
  4072b1:	83 ec 68             	sub    $0x68,%esp
  4072b4:	53                   	push   %ebx
  4072b5:	56                   	push   %esi
  4072b6:	57                   	push   %edi
  4072b7:	89 65 e8             	mov    %esp,-0x18(%ebp)
  4072ba:	33 db                	xor    %ebx,%ebx
  4072bc:	89 5d fc             	mov    %ebx,-0x4(%ebp)
  4072bf:	6a 02                	push   $0x2
  4072c1:	ff 15 bc 80 40 00    	call   *0x4080bc
  4072c7:	59                   	pop    %ecx
  4072c8:	83 0d e0 d8 40 00 ff 	orl    $0xffffffff,0x40d8e0
  4072cf:	83 0d e4 d8 40 00 ff 	orl    $0xffffffff,0x40d8e4
  4072d6:	ff 15 b8 80 40 00    	call   *0x4080b8
  4072dc:	8b 0d d0 a8 40 00    	mov    0x40a8d0,%ecx
  4072e2:	89 08                	mov    %ecx,(%eax)
  4072e4:	ff 15 b4 80 40 00    	call   *0x4080b4
  4072ea:	8b 0d cc a8 40 00    	mov    0x40a8cc,%ecx
  4072f0:	89 08                	mov    %ecx,(%eax)
  4072f2:	a1 b0 80 40 00       	mov    0x4080b0,%eax
  4072f7:	8b 00                	mov    (%eax),%eax
  4072f9:	a3 e8 d8 40 00       	mov    %eax,0x40d8e8
  4072fe:	e8 10 01 00 00       	call   0x407413
  407303:	39 1d 10 a0 40 00    	cmp    %ebx,0x40a010
  407309:	75 0c                	jne    0x407317
  40730b:	68 10 74 40 00       	push   $0x407410
  407310:	ff 15 ac 80 40 00    	call   *0x4080ac
  407316:	59                   	pop    %ecx
  407317:	e8 e2 00 00 00       	call   0x4073fe
  40731c:	68 0c a0 40 00       	push   $0x40a00c
  407321:	68 08 a0 40 00       	push   $0x40a008
  407326:	e8 cd 00 00 00       	call   0x4073f8
  40732b:	a1 c8 a8 40 00       	mov    0x40a8c8,%eax
  407330:	89 45 94             	mov    %eax,-0x6c(%ebp)
  407333:	8d 45 94             	lea    -0x6c(%ebp),%eax
  407336:	50                   	push   %eax
  407337:	ff 35 c4 a8 40 00    	push   0x40a8c4
  40733d:	8d 45 9c             	lea    -0x64(%ebp),%eax
  407340:	50                   	push   %eax
  407341:	8d 45 90             	lea    -0x70(%ebp),%eax
  407344:	50                   	push   %eax
  407345:	8d 45 a0             	lea    -0x60(%ebp),%eax
  407348:	50                   	push   %eax
  407349:	ff 15 a4 80 40 00    	call   *0x4080a4
  40734f:	68 04 a0 40 00       	push   $0x40a004
  407354:	68 00 a0 40 00       	push   $0x40a000
  407359:	e8 9a 00 00 00       	call   0x4073f8
  40735e:	83 c4 24             	add    $0x24,%esp
  407361:	a1 a0 80 40 00       	mov    0x4080a0,%eax
  407366:	8b 30                	mov    (%eax),%esi
  407368:	89 75 8c             	mov    %esi,-0x74(%ebp)
  40736b:	80 3e 22             	cmpb   $0x22,(%esi)
  40736e:	75 3a                	jne    0x4073aa
  407370:	46                   	inc    %esi
  407371:	89 75 8c             	mov    %esi,-0x74(%ebp)
  407374:	8a 06                	mov    (%esi),%al
  407376:	3a c3                	cmp    %bl,%al
  407378:	74 04                	je     0x40737e
  40737a:	3c 22                	cmp    $0x22,%al
  40737c:	75 f2                	jne    0x407370
  40737e:	80 3e 22             	cmpb   $0x22,(%esi)
  407381:	75 04                	jne    0x407387
  407383:	46                   	inc    %esi
  407384:	89 75 8c             	mov    %esi,-0x74(%ebp)
  407387:	8a 06                	mov    (%esi),%al
  407389:	3a c3                	cmp    %bl,%al
  40738b:	74 04                	je     0x407391
  40738d:	3c 20                	cmp    $0x20,%al
  40738f:	76 f2                	jbe    0x407383
  407391:	89 5d d0             	mov    %ebx,-0x30(%ebp)
  407394:	8d 45 a4             	lea    -0x5c(%ebp),%eax
  407397:	50                   	push   %eax
  407398:	ff 15 60 80 40 00    	call   *0x408060
  40739e:	f6 45 d0 01          	testb  $0x1,-0x30(%ebp)
  4073a2:	74 11                	je     0x4073b5
  4073a4:	0f b7 45 d4          	movzwl -0x2c(%ebp),%eax
  4073a8:	eb 0e                	jmp    0x4073b8
  4073aa:	80 3e 20             	cmpb   $0x20,(%esi)
  4073ad:	76 d8                	jbe    0x407387
  4073af:	46                   	inc    %esi
  4073b0:	89 75 8c             	mov    %esi,-0x74(%ebp)
  4073b3:	eb f5                	jmp    0x4073aa
  4073b5:	6a 0a                	push   $0xa
  4073b7:	58                   	pop    %eax
  4073b8:	50                   	push   %eax
  4073b9:	56                   	push   %esi
  4073ba:	53                   	push   %ebx
  4073bb:	53                   	push   %ebx
  4073bc:	ff 15 5c 80 40 00    	call   *0x40805c
  4073c2:	50                   	push   %eax
  4073c3:	e8 38 9c ff ff       	call   0x401000
  4073c8:	89 45 98             	mov    %eax,-0x68(%ebp)
  4073cb:	50                   	push   %eax
  4073cc:	ff 15 dc 80 40 00    	call   *0x4080dc
  4073d2:	8b 45 ec             	mov    -0x14(%ebp),%eax
  4073d5:	8b 08                	mov    (%eax),%ecx
  4073d7:	8b 09                	mov    (%ecx),%ecx
  4073d9:	89 4d 88             	mov    %ecx,-0x78(%ebp)
  4073dc:	50                   	push   %eax
  4073dd:	51                   	push   %ecx
  4073de:	e8 0f 00 00 00       	call   0x4073f2
  4073e3:	59                   	pop    %ecx
  4073e4:	59                   	pop    %ecx
  4073e5:	c3                   	ret    
  4073e6:	8b 65 e8             	mov    -0x18(%ebp),%esp
  4073e9:	ff 75 88             	push   -0x78(%ebp)
  4073ec:	ff 15 98 80 40 00    	call   *0x408098
  4073f2:	ff 25 9c 80 40 00    	jmp    *0x40809c
  4073f8:	ff 25 a8 80 40 00    	jmp    *0x4080a8
  4073fe:	68 00 00 03 00       	push   $0x30000
  407403:	68 00 00 01 00       	push   $0x10000
  407408:	e8 19 00 00 00       	call   0x407426
  40740d:	59                   	pop    %ecx
  40740e:	59                   	pop    %ecx
  40740f:	c3                   	ret    
  407410:	33 c0                	xor    %eax,%eax
  407412:	c3                   	ret    
  407413:	c3                   	ret    
  407414:	cc                   	int3   
  407415:	cc                   	int3   
  407416:	cc                   	int3   
  407417:	cc                   	int3   
  407418:	cc                   	int3   
  407419:	cc                   	int3   
  40741a:	cc                   	int3   
  40741b:	cc                   	int3   
  40741c:	cc                   	int3   
  40741d:	cc                   	int3   
  40741e:	cc                   	int3   
  40741f:	cc                   	int3   
  407420:	ff 25 c0 80 40 00    	jmp    *0x4080c0
  407426:	ff 25 c4 80 40 00    	jmp    *0x4080c4
  40742c:	cc                   	int3   
  40742d:	cc                   	int3   
  40742e:	cc                   	int3   
  40742f:	cc                   	int3   
  407430:	53                   	push   %ebx
  407431:	55                   	push   %ebp
  407432:	56                   	push   %esi
  407433:	57                   	push   %edi
  407434:	8b c1                	mov    %ecx,%eax
  407436:	8b 7c 24 14          	mov    0x14(%esp),%edi
  40743a:	8b 6c 24 18          	mov    0x18(%esp),%ebp
  40743e:	83 ff 1f             	cmp    $0x1f,%edi
  407441:	0f 82 89 01 00 00    	jb     0x4075d0
  407447:	f7 c2 03 00 00 00    	test   $0x3,%edx
  40744d:	74 13                	je     0x407462
  40744f:	0f b6 32             	movzbl (%edx),%esi
  407452:	0f b6 d8             	movzbl %al,%ebx
  407455:	42                   	inc    %edx
  407456:	c1 e8 08             	shr    $0x8,%eax
  407459:	33 f3                	xor    %ebx,%esi
  40745b:	33 44 b5 00          	xor    0x0(%ebp,%esi,4),%eax
  40745f:	4f                   	dec    %edi
  407460:	eb e5                	jmp    0x407447
  407462:	33 02                	xor    (%edx),%eax
  407464:	8d 7c 3a e5          	lea    -0x1b(%edx,%edi,1),%edi
  407468:	2b d7                	sub    %edi,%edx
  40746a:	8d 9b 00 00 00 00    	lea    0x0(%ebx),%ebx
  407470:	8b 4c 17 0c          	mov    0xc(%edi,%edx,1),%ecx
  407474:	8b 5c 17 08          	mov    0x8(%edi,%edx,1),%ebx
  407478:	0f b6 f3             	movzbl %bl,%esi
  40747b:	33 8c b5 00 0c 00 00 	xor    0xc00(%ebp,%esi,4),%ecx
  407482:	0f b6 f7             	movzbl %bh,%esi
  407485:	c1 eb 10             	shr    $0x10,%ebx
  407488:	33 8c b5 00 08 00 00 	xor    0x800(%ebp,%esi,4),%ecx
  40748f:	0f b6 f3             	movzbl %bl,%esi
  407492:	c1 eb 08             	shr    $0x8,%ebx
  407495:	33 8c b5 00 04 00 00 	xor    0x400(%ebp,%esi,4),%ecx
  40749c:	33 4c 9d 00          	xor    0x0(%ebp,%ebx,4),%ecx
  4074a0:	8b 5c 17 04          	mov    0x4(%edi,%edx,1),%ebx
  4074a4:	0f b6 f3             	movzbl %bl,%esi
  4074a7:	33 8c b5 00 1c 00 00 	xor    0x1c00(%ebp,%esi,4),%ecx
  4074ae:	0f b6 f7             	movzbl %bh,%esi
  4074b1:	c1 eb 10             	shr    $0x10,%ebx
  4074b4:	33 8c b5 00 18 00 00 	xor    0x1800(%ebp,%esi,4),%ecx
  4074bb:	0f b6 f3             	movzbl %bl,%esi
  4074be:	c1 eb 08             	shr    $0x8,%ebx
  4074c1:	33 8c b5 00 14 00 00 	xor    0x1400(%ebp,%esi,4),%ecx
  4074c8:	33 8c 9d 00 10 00 00 	xor    0x1000(%ebp,%ebx,4),%ecx
  4074cf:	0f b6 f0             	movzbl %al,%esi
  4074d2:	8b d8                	mov    %eax,%ebx
  4074d4:	c1 eb 18             	shr    $0x18,%ebx
  4074d7:	33 8c b5 00 2c 00 00 	xor    0x2c00(%ebp,%esi,4),%ecx
  4074de:	33 8c 9d 00 20 00 00 	xor    0x2000(%ebp,%ebx,4),%ecx
  4074e5:	c1 c8 10             	ror    $0x10,%eax
  4074e8:	0f b6 f0             	movzbl %al,%esi
  4074eb:	c1 e8 18             	shr    $0x18,%eax
  4074ee:	33 8c b5 00 24 00 00 	xor    0x2400(%ebp,%esi,4),%ecx
  4074f5:	33 8c 85 00 28 00 00 	xor    0x2800(%ebp,%eax,4),%ecx
  4074fc:	8b 44 17 18          	mov    0x18(%edi,%edx,1),%eax
  407500:	8b 5c 17 14          	mov    0x14(%edi,%edx,1),%ebx
  407504:	0f b6 f3             	movzbl %bl,%esi
  407507:	33 84 b5 00 0c 00 00 	xor    0xc00(%ebp,%esi,4),%eax
  40750e:	0f b6 f7             	movzbl %bh,%esi
  407511:	c1 eb 10             	shr    $0x10,%ebx
  407514:	33 84 b5 00 08 00 00 	xor    0x800(%ebp,%esi,4),%eax
  40751b:	0f b6 f3             	movzbl %bl,%esi
  40751e:	c1 eb 08             	shr    $0x8,%ebx
  407521:	33 84 b5 00 04 00 00 	xor    0x400(%ebp,%esi,4),%eax
  407528:	33 44 9d 00          	xor    0x0(%ebp,%ebx,4),%eax
  40752c:	8b 5c 17 10          	mov    0x10(%edi,%edx,1),%ebx
  407530:	0f b6 f3             	movzbl %bl,%esi
  407533:	33 84 b5 00 1c 00 00 	xor    0x1c00(%ebp,%esi,4),%eax
  40753a:	0f b6 f7             	movzbl %bh,%esi
  40753d:	c1 eb 10             	shr    $0x10,%ebx
  407540:	33 84 b5 00 18 00 00 	xor    0x1800(%ebp,%esi,4),%eax
  407547:	0f b6 f3             	movzbl %bl,%esi
  40754a:	c1 eb 08             	shr    $0x8,%ebx
  40754d:	33 84 b5 00 14 00 00 	xor    0x1400(%ebp,%esi,4),%eax
  407554:	33 84 9d 00 10 00 00 	xor    0x1000(%ebp,%ebx,4),%eax
  40755b:	0f b6 f1             	movzbl %cl,%esi
  40755e:	8b d9                	mov    %ecx,%ebx
  407560:	c1 eb 18             	shr    $0x18,%ebx
  407563:	33 84 b5 00 2c 00 00 	xor    0x2c00(%ebp,%esi,4),%eax
  40756a:	33 84 9d 00 20 00 00 	xor    0x2000(%ebp,%ebx,4),%eax
  407571:	c1 c9 10             	ror    $0x10,%ecx
  407574:	0f b6 f1             	movzbl %cl,%esi
  407577:	c1 e9 18             	shr    $0x18,%ecx
  40757a:	33 84 b5 00 24 00 00 	xor    0x2400(%ebp,%esi,4),%eax
  407581:	33 84 8d 00 28 00 00 	xor    0x2800(%ebp,%ecx,4),%eax
  407588:	83 c2 18             	add    $0x18,%edx
  40758b:	0f 83 df fe ff ff    	jae    0x407470
  407591:	83 c7 18             	add    $0x18,%edi
  407594:	83 ea 18             	sub    $0x18,%edx
  407597:	0f b6 d8             	movzbl %al,%ebx
  40759a:	0f b6 cc             	movzbl %ah,%ecx
  40759d:	c1 e8 10             	shr    $0x10,%eax
  4075a0:	0f b6 f0             	movzbl %al,%esi
  4075a3:	c1 e8 08             	shr    $0x8,%eax
  4075a6:	8b 44 85 00          	mov    0x0(%ebp,%eax,4),%eax
  4075aa:	33 84 9d 00 0c 00 00 	xor    0xc00(%ebp,%ebx,4),%eax
  4075b1:	33 84 8d 00 08 00 00 	xor    0x800(%ebp,%ecx,4),%eax
  4075b8:	33 84 b5 00 04 00 00 	xor    0x400(%ebp,%esi,4),%eax
  4075bf:	83 c2 04             	add    $0x4,%edx
  4075c2:	72 05                	jb     0x4075c9
  4075c4:	33 04 17             	xor    (%edi,%edx,1),%eax
  4075c7:	eb ce                	jmp    0x407597
  4075c9:	03 d7                	add    %edi,%edx
  4075cb:	83 c7 03             	add    $0x3,%edi
  4075ce:	2b fa                	sub    %edx,%edi
  4075d0:	85 ff                	test   %edi,%edi
  4075d2:	74 13                	je     0x4075e7
  4075d4:	0f b6 32             	movzbl (%edx),%esi
  4075d7:	0f b6 d8             	movzbl %al,%ebx
  4075da:	42                   	inc    %edx
  4075db:	c1 e8 08             	shr    $0x8,%eax
  4075de:	33 f3                	xor    %ebx,%esi
  4075e0:	33 44 b5 00          	xor    0x0(%ebp,%esi,4),%eax
  4075e4:	4f                   	dec    %edi
  4075e5:	75 ed                	jne    0x4075d4
  4075e7:	5f                   	pop    %edi
  4075e8:	5e                   	pop    %esi
  4075e9:	5d                   	pop    %ebp
  4075ea:	5b                   	pop    %ebx
  4075eb:	c2 08 00             	ret    $0x8
